
Pac-Man.elf:     file format elf32-littlenios2
Pac-Man.elf
architecture: nios2:r1, flags 0x00000112:
EXEC_P, HAS_SYMS, D_PAGED
start address 0x00000248

Program Header:
    LOAD off    0x00001000 vaddr 0x00000000 paddr 0x00000000 align 2**12
         filesz 0x00000020 memsz 0x00000020 flags r-x
    LOAD off    0x00001020 vaddr 0x00000020 paddr 0x00000020 align 2**12
         filesz 0x00020458 memsz 0x00020458 flags r-x
    LOAD off    0x00021478 vaddr 0x00020478 paddr 0x00022438 align 2**12
         filesz 0x00001fc0 memsz 0x00001fc0 flags rw-
    LOAD off    0x000243f8 vaddr 0x000243f8 paddr 0x000243f8 align 2**12
         filesz 0x00000000 memsz 0x00009404 flags rw-

Sections:
Idx Name          Size      VMA       LMA       File off  Algn
  0 .entry        00000020  00000000  00000000  00001000  2**5
                  CONTENTS, ALLOC, LOAD, READONLY, CODE
  1 .exceptions   00000228  00000020  00000020  00001020  2**2
                  CONTENTS, ALLOC, LOAD, READONLY, CODE
  2 .text         0001ee98  00000248  00000248  00001248  2**2
                  CONTENTS, ALLOC, LOAD, READONLY, CODE
  3 .rodata       00001398  0001f0e0  0001f0e0  000200e0  2**2
                  CONTENTS, ALLOC, LOAD, READONLY, DATA
  4 .rwdata       00001fc0  00020478  00022438  00021478  2**2
                  CONTENTS, ALLOC, LOAD, DATA, SMALL_DATA
  5 .bss          00009404  000243f8  000243f8  000243f8  2**2
                  ALLOC, SMALL_DATA
  6 .SDRAM        00000000  0002d7fc  0002d7fc  00023438  2**0
                  CONTENTS
  7 .VGA_Subsystem_Char_Buf_Subsystem_Onchip_SRAM 00000000  09000000  09000000  00023438  2**0
                  CONTENTS
  8 .comment      00000023  00000000  00000000  00023438  2**0
                  CONTENTS, READONLY
  9 .debug_aranges 000016e8  00000000  00000000  00023460  2**3
                  CONTENTS, READONLY, DEBUGGING
 10 .debug_info   0003d4d6  00000000  00000000  00024b48  2**0
                  CONTENTS, READONLY, DEBUGGING
 11 .debug_abbrev 0000fd5f  00000000  00000000  0006201e  2**0
                  CONTENTS, READONLY, DEBUGGING
 12 .debug_line   00013a46  00000000  00000000  00071d7d  2**0
                  CONTENTS, READONLY, DEBUGGING
 13 .debug_frame  00004c90  00000000  00000000  000857c4  2**2
                  CONTENTS, READONLY, DEBUGGING
 14 .debug_str    0000921f  00000000  00000000  0008a454  2**0
                  CONTENTS, READONLY, DEBUGGING
 15 .debug_loc    0001d066  00000000  00000000  00093673  2**0
                  CONTENTS, READONLY, DEBUGGING
 16 .debug_alt_sim_info 00000020  00000000  00000000  000b06dc  2**2
                  CONTENTS, READONLY, DEBUGGING
 17 .debug_ranges 00002390  00000000  00000000  000b0700  2**3
                  CONTENTS, READONLY, DEBUGGING
 18 .thread_model 00000006  00000000  00000000  000ba77a  2**0
                  CONTENTS, READONLY
 19 .cpu          00000005  00000000  00000000  000ba780  2**0
                  CONTENTS, READONLY
 20 .qsys         00000001  00000000  00000000  000ba785  2**0
                  CONTENTS, READONLY
 21 .simulation_enabled 00000001  00000000  00000000  000ba786  2**0
                  CONTENTS, READONLY
 22 .sysid_hash   00000004  00000000  00000000  000ba787  2**0
                  CONTENTS, READONLY
 23 .sysid_base   00000004  00000000  00000000  000ba78b  2**0
                  CONTENTS, READONLY
 24 .sysid_time   00000004  00000000  00000000  000ba78f  2**0
                  CONTENTS, READONLY
 25 .stderr_dev   00000009  00000000  00000000  000ba793  2**0
                  CONTENTS, READONLY
 26 .stdin_dev    00000009  00000000  00000000  000ba79c  2**0
                  CONTENTS, READONLY
 27 .stdout_dev   00000009  00000000  00000000  000ba7a5  2**0
                  CONTENTS, READONLY
 28 .sopc_system_name 0000000b  00000000  00000000  000ba7ae  2**0
                  CONTENTS, READONLY
 29 .quartus_project_dir 00000061  00000000  00000000  000ba7b9  2**0
                  CONTENTS, READONLY
 30 .jdi          0000abe3  00000000  00000000  000ba81a  2**0
                  CONTENTS, READONLY
 31 .sopcinfo     001ae257  00000000  00000000  000c53fd  2**0
                  CONTENTS, READONLY
SYMBOL TABLE:
00000000 l    d  .entry	00000000 .entry
00000020 l    d  .exceptions	00000000 .exceptions
00000248 l    d  .text	00000000 .text
0001f0e0 l    d  .rodata	00000000 .rodata
00020478 l    d  .rwdata	00000000 .rwdata
000243f8 l    d  .bss	00000000 .bss
0002d7fc l    d  .SDRAM	00000000 .SDRAM
09000000 l    d  .VGA_Subsystem_Char_Buf_Subsystem_Onchip_SRAM	00000000 .VGA_Subsystem_Char_Buf_Subsystem_Onchip_SRAM
00000000 l    d  .comment	00000000 .comment
00000000 l    d  .debug_aranges	00000000 .debug_aranges
00000000 l    d  .debug_info	00000000 .debug_info
00000000 l    d  .debug_abbrev	00000000 .debug_abbrev
00000000 l    d  .debug_line	00000000 .debug_line
00000000 l    d  .debug_frame	00000000 .debug_frame
00000000 l    d  .debug_str	00000000 .debug_str
00000000 l    d  .debug_loc	00000000 .debug_loc
00000000 l    d  .debug_alt_sim_info	00000000 .debug_alt_sim_info
00000000 l    d  .debug_ranges	00000000 .debug_ranges
00000000 l    df *ABS*	00000000 ../Pac-Man_bsp//obj/HAL/src/crt0.o
00000280 l       .text	00000000 alt_after_alt_main
00000000 l    df *ABS*	00000000 alt_irq_handler.c
00000000 l    df *ABS*	00000000 alt_instruction_exception_entry.c
00000000 l    df *ABS*	00000000 ControllerInterface.cpp
00000000 l    df *ABS*	00000000 Entity.cpp
00000000 l    df *ABS*	00000000 Game.cpp
00000000 l    df *ABS*	00000000 Keyboard.cpp
00000000 l    df *ABS*	00000000 PacMan.cpp
00000000 l    df *ABS*	00000000 VGA.cpp
00000000 l    df *ABS*	00000000 VideoInterface.cpp
00000000 l    df *ABS*	00000000 main.cpp
00000000 l    df *ABS*	00000000 si_class_type_info.cc
00000000 l    df *ABS*	00000000 class_type_info.cc
00000000 l    df *ABS*	00000000 tinfo.cc
00000000 l    df *ABS*	00000000 pure.cc
00000000 l    df *ABS*	00000000 del_op.cc
00000000 l    df *ABS*	00000000 eh_terminate.cc
00000000 l    df *ABS*	00000000 eh_term_handler.cc
00000000 l    df *ABS*	00000000 eh_unex_handler.cc
00000000 l    df *ABS*	00000000 eh_personality.cc
00003ae0 l     F .text	000000a4 _ZL21size_of_encoded_valueh
00003b84 l     F .text	0000020c _ZL28read_encoded_value_with_basehjPKhPj
00003d90 l     F .text	00000054 _ZL15get_ttype_entryP16lsda_header_infom
00003de4 l     F .text	0000008c _ZL21base_of_encoded_valuehP15_Unwind_Context
00003e70 l     F .text	00000134 _ZL17parse_lsda_headerP15_Unwind_ContextPKhP16lsda_header_info
00003fa4 l     F .text	00000088 _ZL16get_adjusted_ptrPKSt9type_infoS1_PPv.constprop.3
0000402c l     F .text	000001c0 _ZL28check_compact_exception_specPKSt9type_infoPvPKhij
000041ec l     F .text	000000a8 _ZL20check_exception_specP16lsda_header_infoPKSt9type_infoPvl
00000000 l    df *ABS*	00000000 eh_catch.cc
00000000 l    df *ABS*	00000000 eh_throw.cc
00004c54 l     F .text	00000044 _ZL23__gxx_exception_cleanup19_Unwind_Reason_CodeP17_Unwind_Exception
00000000 l    df *ABS*	00000000 eh_call.cc
00000000 l    df *ABS*	00000000 eh_alloc.cc
00004e04 l     F .text	000000b8 _ZN12_GLOBAL__N_14pool4freeEPv.constprop.4
0002a4a0 l     O .bss	00000010 _ZN12_GLOBAL__N_114emergency_poolE
00004ebc l     F .text	000000a8 _ZN12_GLOBAL__N_14pool8allocateEj.constprop.5
0000506c l     F .text	0000005c _GLOBAL__sub_I___cxa_allocate_exception
00000000 l    df *ABS*	00000000 eh_exception.cc
00000000 l    df *ABS*	00000000 eh_globals.cc
000243f8 l     O .bss	00000008 _ZL10eh_globals
00000000 l    df *ABS*	00000000 s_round.c
00000000 l    df *ABS*	00000000 sf_round.c
00000000 l    df *ABS*	00000000 addsf3.c
00000000 l    df *ABS*	00000000 gesf2.c
00000000 l    df *ABS*	00000000 lesf2.c
00000000 l    df *ABS*	00000000 fixsfsi.c
00000000 l    df *ABS*	00000000 floatsisf.c
00000000 l    df *ABS*	00000000 adddf3.c
00000000 l    df *ABS*	00000000 fixdfsi.c
00000000 l    df *ABS*	00000000 floatsidf.c
00000000 l    df *ABS*	00000000 extendsfdf2.c
00000000 l    df *ABS*	00000000 unwind-sjlj.c
00006594 l     F .text	00000118 _Unwind_ForcedUnwind_Phase2
00024400 l     O .bss	00000004 fc_static
000066ac l     F .text	000000c0 _Unwind_RaiseException_Phase2
0000676c l     F .text	00000030 uw_install_context.isra.1
00000000 l    df *ABS*	00000000 libgcc2.c
00000000 l    df *ABS*	00000000 libgcc2.c
00000000 l    df *ABS*	00000000 abort.c
00000000 l    df *ABS*	00000000 malloc.c
00000000 l    df *ABS*	00000000 mallocr.c
00000000 l    df *ABS*	00000000 memcpy.c
00000000 l    df *ABS*	00000000 memset.c
00000000 l    df *ABS*	00000000 printf.c
00000000 l    df *ABS*	00000000 puts.c
00000000 l    df *ABS*	00000000 sbrkr.c
00000000 l    df *ABS*	00000000 signal.c
00000000 l    df *ABS*	00000000 signalr.c
00000000 l    df *ABS*	00000000 strcmp.c
00000000 l    df *ABS*	00000000 strlen.c
00000000 l    df *ABS*	00000000 vfprintf.c
00020002 l     O .rodata	00000010 zeroes.4404
00009df4 l     F .text	000000bc __sbprintf
00020012 l     O .rodata	00000010 blanks.4403
00000000 l    df *ABS*	00000000 wsetup.c
00000000 l    df *ABS*	00000000 dtoa.c
0000a004 l     F .text	00000200 quorem
00000000 l    df *ABS*	00000000 fflush.c
00000000 l    df *ABS*	00000000 findfp.c
0000bb34 l     F .text	00000008 __fp_unlock
0000bb48 l     F .text	0000019c __sinit.part.1
0000bce4 l     F .text	00000008 __fp_lock
00000000 l    df *ABS*	00000000 mallocr.c
00000000 l    df *ABS*	00000000 fvwrite.c
00000000 l    df *ABS*	00000000 fwalk.c
00000000 l    df *ABS*	00000000 impure.c
00020880 l     O .rwdata	00000424 impure_data
00000000 l    df *ABS*	00000000 int_errno.c
00000000 l    df *ABS*	00000000 locale.c
00020cc4 l     O .rwdata	00000020 lc_ctype_charset
00020ca4 l     O .rwdata	00000020 lc_message_charset
00020ce4 l     O .rwdata	00000038 lconv
00000000 l    df *ABS*	00000000 makebuf.c
00000000 l    df *ABS*	00000000 memchr.c
00000000 l    df *ABS*	00000000 memmove.c
00000000 l    df *ABS*	00000000 mprec.c
00020044 l     O .rodata	0000000c p05.2768
00000000 l    df *ABS*	00000000 mallocr.c
00000000 l    df *ABS*	00000000 s_fpclassify.c
00000000 l    df *ABS*	00000000 stdio.c
00000000 l    df *ABS*	00000000 vfprintf.c
0000e534 l     F .text	000000fc __sprint_r.part.0
00020178 l     O .rodata	00000010 blanks.4348
00020168 l     O .rodata	00000010 zeroes.4349
0000fac0 l     F .text	000000bc __sbprintf
00000000 l    df *ABS*	00000000 writer.c
00000000 l    df *ABS*	00000000 closer.c
00000000 l    df *ABS*	00000000 mallocr.c
00000000 l    df *ABS*	00000000 fclose.c
00000000 l    df *ABS*	00000000 fputwc.c
00000000 l    df *ABS*	00000000 fstatr.c
00000000 l    df *ABS*	00000000 isattyr.c
00000000 l    df *ABS*	00000000 lseekr.c
00000000 l    df *ABS*	00000000 readr.c
00000000 l    df *ABS*	00000000 wbuf.c
00000000 l    df *ABS*	00000000 wcrtomb.c
00000000 l    df *ABS*	00000000 wctomb_r.c
00000000 l    df *ABS*	00000000 libgcc2.c
00000000 l    df *ABS*	00000000 libgcc2.c
00000000 l    df *ABS*	00000000 lib2-divmod.c
00000000 l    df *ABS*	00000000 divdf3.c
00000000 l    df *ABS*	00000000 eqdf2.c
00000000 l    df *ABS*	00000000 gedf2.c
00000000 l    df *ABS*	00000000 ledf2.c
00000000 l    df *ABS*	00000000 muldf3.c
00000000 l    df *ABS*	00000000 subdf3.c
00000000 l    df *ABS*	00000000 floatunsidf.c
00000000 l    df *ABS*	00000000 alt_close.c
00012d10 l     F .text	0000003c alt_get_errno
00000000 l    df *ABS*	00000000 alt_dev.c
00012e1c l     F .text	0000002c alt_dev_null_write
00000000 l    df *ABS*	00000000 alt_errno.c
00000000 l    df *ABS*	00000000 alt_exit.c
00000000 l    df *ABS*	00000000 alt_fstat.c
00012e7c l     F .text	0000003c alt_get_errno
00000000 l    df *ABS*	00000000 alt_getpid.c
00000000 l    df *ABS*	00000000 alt_isatty.c
00012f88 l     F .text	0000003c alt_get_errno
00000000 l    df *ABS*	00000000 alt_kill.c
00013068 l     F .text	0000003c alt_get_errno
00000000 l    df *ABS*	00000000 alt_load.c
000131d4 l     F .text	00000068 alt_load_section
00000000 l    df *ABS*	00000000 alt_lseek.c
000132c0 l     F .text	0000003c alt_get_errno
00000000 l    df *ABS*	00000000 alt_main.c
00000000 l    df *ABS*	00000000 alt_read.c
0001348c l     F .text	0000003c alt_get_errno
00000000 l    df *ABS*	00000000 alt_release_fd.c
00000000 l    df *ABS*	00000000 alt_sbrk.c
000223ac l     O .rwdata	00000004 heap_end
00000000 l    df *ABS*	00000000 alt_write.c
000136d8 l     F .text	0000003c alt_get_errno
00000000 l    df *ABS*	00000000 alt_env_lock.c
000223b0 l     O .rwdata	00000004 lockid
00024430 l     O .bss	00000004 locks
00000000 l    df *ABS*	00000000 alt_malloc_lock.c
000223b4 l     O .rwdata	00000004 lockid
00024438 l     O .bss	00000004 locks
00000000 l    df *ABS*	00000000 os_core.c
00015108 l     F .text	00000048 OS_InitMisc
00015150 l     F .text	0000006c OS_InitRdyList
000152bc l     F .text	000000e4 OS_InitTCBList
00015028 l     F .text	000000e0 OS_InitEventList
000151bc l     F .text	00000080 OS_InitTaskIdle
0001523c l     F .text	00000080 OS_InitTaskStat
0001552c l     F .text	00000074 OS_SchedNew
00000000 l    df *ABS*	00000000 os_dbg.c
00000000 l    df *ABS*	00000000 os_flag.c
0001724c l     F .text	000000f4 OS_FlagTaskRdy
0001700c l     F .text	00000160 OS_FlagBlock
00000000 l    df *ABS*	00000000 os_mem.c
00000000 l    df *ABS*	00000000 os_q.c
00000000 l    df *ABS*	00000000 os_sem.c
00000000 l    df *ABS*	00000000 os_task.c
00000000 l    df *ABS*	00000000 os_time.c
00000000 l    df *ABS*	00000000 alt_sys_init.c
0001b2fc l     F .text	00000034 alt_dev_reg
00020ec4 l     O .rwdata	0000106c JTAG_UART
00021f30 l     O .rwdata	00000030 AV_Config
00021f60 l     O .rwdata	00000030 Audio_Subsystem_Audio
00021f90 l     O .rwdata	0000002c Char_LCD_16x2
00021fbc l     O .rwdata	0000002c IrDA
00021fe8 l     O .rwdata	0000002c Expansion_JP5
00022014 l     O .rwdata	0000002c Green_LEDs
00022040 l     O .rwdata	0000002c HEX3_HEX0
0002206c l     O .rwdata	0000002c HEX7_HEX4
00022098 l     O .rwdata	0000002c Pushbuttons
000220c4 l     O .rwdata	0000002c Red_LEDs
000220f0 l     O .rwdata	0000002c Slider_Switches
0002211c l     O .rwdata	00000038 PS2_Port
00022154 l     O .rwdata	00000038 PS2_Port_Dual
0002218c l     O .rwdata	0000002c Serial_Port
000221b8 l     O .rwdata	00000034 USB
000221ec l     O .rwdata	0000005c VGA_Subsystem_Char_Buf_Subsystem_Char_Buf_DMA
00022248 l     O .rwdata	0000005c Video_In_Subsystem_Video_In_DMA
000222a4 l     O .rwdata	00000054 VGA_Subsystem_VGA_Pixel_DMA
000222f8 l     O .rwdata	0000002c SD_Card
00000000 l    df *ABS*	00000000 altera_avalon_jtag_uart_fd.c
00000000 l    df *ABS*	00000000 altera_avalon_jtag_uart_init.c
0001be1c l     F .text	000002a8 altera_avalon_jtag_uart_irq
0001c0c4 l     F .text	00000104 altera_avalon_jtag_uart_timeout
00000000 l    df *ABS*	00000000 altera_avalon_jtag_uart_ioctl.c
00000000 l    df *ABS*	00000000 altera_avalon_jtag_uart_read.c
00000000 l    df *ABS*	00000000 altera_avalon_jtag_uart_write.c
00000000 l    df *ABS*	00000000 altera_avalon_timer_sc.c
0001c8a0 l     F .text	0000007c alt_avalon_timer_sc_irq
00000000 l    df *ABS*	00000000 altera_up_avalon_character_lcd.c
00000000 l    df *ABS*	00000000 altera_up_avalon_irda.c
00000000 l    df *ABS*	00000000 altera_up_avalon_ps2.c
00000000 l    df *ABS*	00000000 altera_up_avalon_rs232.c
00000000 l    df *ABS*	00000000 alt_alarm_start.c
00000000 l    df *ABS*	00000000 alt_dcache_flush_all.c
00000000 l    df *ABS*	00000000 alt_dev_llist_insert.c
0001dd9c l     F .text	0000003c alt_get_errno
00000000 l    df *ABS*	00000000 alt_do_ctors.c
00000000 l    df *ABS*	00000000 alt_do_dtors.c
00000000 l    df *ABS*	00000000 alt_find_dev.c
00000000 l    df *ABS*	00000000 alt_icache_flush_all.c
00000000 l    df *ABS*	00000000 alt_io_redirect.c
0001e000 l     F .text	000000c4 alt_open_fd
00000000 l    df *ABS*	00000000 alt_irq_register.c
00000000 l    df *ABS*	00000000 alt_irq_vars.c
00000000 l    df *ABS*	00000000 alt_open.c
0001e2c0 l     F .text	0000003c alt_get_errno
0001e2fc l     F .text	000000c4 alt_file_locked
00000000 l    df *ABS*	00000000 alt_tick.c
00000000 l    df *ABS*	00000000 altera_nios2_gen2_irq.c
00000000 l    df *ABS*	00000000 os_cpu_a.o
00000040 l       *ABS*	00000000 OSCtxSw_SWITCH_PC
00000000 l    df *ABS*	00000000 os_cpu_c.c
00000014 l       *ABS*	00000000 OSTCBNext_OFFSET
00000032 l       *ABS*	00000000 OSTCBPrio_OFFSET
00000000 l       *ABS*	00000000 OSTCBStkPtr_OFFSET
00000000 l    df *ABS*	00000000 alt_find_file.c
00000000 l    df *ABS*	00000000 alt_get_fd.c
00000000 l    df *ABS*	00000000 alt_icache_flush.c
00000000 l    df *ABS*	00000000 atexit.c
00000000 l    df *ABS*	00000000 exit.c
00000000 l    df *ABS*	00000000 memcmp.c
00000000 l    df *ABS*	00000000 __atexit.c
00000000 l    df *ABS*	00000000 __call_atexit.c
0002449c g     O .bss	00000004 alt_instruction_exception_handler
00004fc4 g     F .text	00000028 __cxa_free_exception
000038fc g     F .text	00000008 _ZNKSt9type_info15__is_function_pEv
0000dca8 g     F .text	00000074 _mprec_log10
000027e8 g     F .text	00000054 _ZN14VideoInterface9drawPixelEii
00003a80 g     F .text	00000018 _ZSt10unexpectedv
00022402 g     O .rwdata	00000002 OSTaskNameSize
00000548 g     F .text	00000028 _ZN6Entity6getDirEv
0000dd94 g     F .text	0000008c __any_on
0001005c g     F .text	00000054 _isatty_r
00020050 g     O .rodata	00000028 __mprec_tinytens
000133d0 g     F .text	000000bc alt_main
00007640 g     F .text	000000c0 _puts_r
0002d6fc g     O .bss	00000100 alt_irq
0001d45c g     F .text	00000060 alt_up_ps2_disable_read_interrupt
000050f0 g     F .text	00000004 _ZN10__cxxabiv115__forced_unwindD1Ev
000100b0 g     F .text	00000060 _lseek_r
00017a6c g     F .text	000000cc OS_MemInit
00006828 g     F .text	00000020 .hidden _Unwind_GetIPInfo
00022438 g       *ABS*	00000000 __flash_rwdata_start
0001b29c g     F .text	00000060 OSTimeSet
0001ca04 g     F .text	00000040 alt_up_character_lcd_send_cmd
000119fc g     F .text	00000088 .hidden __eqdf2
00004d28 g     F .text	00000084 __cxa_rethrow
000067b4 g     F .text	00000014 .hidden _Unwind_SjLj_Unregister
00003abc g     F .text	00000014 _ZSt14set_unexpectedPFvvE
00013d7c g     F .text	00000610 OSEventPendMulti
000032d8 g     F .text	00000054 _Z9inputLoopPv
00006818 g     F .text	00000010 .hidden _Unwind_GetIP
0002d7fc g       *ABS*	00000000 __alt_heap_start
0001e908 g     F .text	00000024 OSTaskCreateHook
000244a0 g     O .bss	00002000 task1_stk
00007a0c g     F .text	0000005c _kill_r
00007604 g     F .text	0000003c printf
000223da g     O .rwdata	00000002 OSMboxEn
000143e4 g     F .text	0000004c OSIntEnter
000102c8 g     F .text	0000009c _wcrtomb_r
000077d4 g     F .text	00000084 _signal_r
0000e4d0 g     F .text	0000005c __sseek
0000be84 g     F .text	00000010 __sinit
00010170 g     F .text	00000140 __swbuf_r
0001d274 g     F .text	00000034 read_CE_bit
00005040 g     F .text	0000002c __cxa_free_dependent_exception
000223ea g     O .rwdata	00000002 OSQEn
0000336c g     F .text	00000010 _ZN10__cxxabiv120__si_class_type_infoD2Ev
0000c94c g     F .text	0000007c _setlocale_r
0001fcac  w    O .rodata	00000025 _ZTSN10__cxxabiv120__si_class_type_infoE
0000bcec g     F .text	00000068 __sfmoreglue
00013a50 g     F .text	000000cc __malloc_unlock
00005118 g     F .text	00000100 round
00000570 g     F .text	000000d4 _ZN4GameC1EP19ControllerInterfaceP14VideoInterface
0001e970 g     F .text	00000020 OSTaskStatHook
0001d5fc g     F .text	0000009c alt_up_ps2_read_data_byte_timeout
0001daf0 g     F .text	00000090 alt_up_rs232_read_fd
000050f0 g     F .text	00000004 _ZN10__cxxabiv115__forced_unwindD2Ev
00024440 g     O .bss	00000001 OSLockNesting
00004c34 g     F .text	00000020 _ZSt18uncaught_exceptionv
00022428 g     O .rwdata	00000002 OSDataSize
00024441 g     O .bss	00000001 OSRunning
00003974 g     F .text	00000020 __cxa_deleted_virtual
0000ccc8 g     F .text	0000015c memmove
0001e9b0 g     F .text	00000020 OSInitHookBegin
00022420 g     O .rwdata	00000002 OSTmrSize
000050c8 g     F .text	00000004 _ZNSt9exceptionD2Ev
0000be6c g     F .text	00000018 _cleanup
0000ce24 g     F .text	000000a8 _Balloc
000058e8 g     F .text	00000070 .hidden __fixsfsi
00002a04 g     F .text	00000064 _ZN14VideoInterface8drawLineEiiii
00024444 g     O .bss	00000004 OSIdleCtr
00011a84 g     F .text	000000dc .hidden __gtdf2
0001fe80  w    O .rodata	00000014 _ZTVSt13bad_exception
0001e6b8 g     F .text	00000024 altera_nios2_gen2_irq_init
0001e788 g       .text	00000000 OSStartTsk
0001c990 g     F .text	00000074 get_DDRAM_addr
0001586c g     F .text	000002d4 OS_TCBInit
00000000 g     F .entry	0000001c __reset
00006864 g     F .text	00000008 .hidden _Unwind_GetRegionStart
00022426 g     O .rwdata	00000002 OSTmrWheelTblSize
00000020 g       *ABS*	00000000 __flash_exceptions_start
000223c6 g     O .rwdata	00000002 OSEventSize
00002de0 g     F .text	0000034c _ZN14VideoInterface18_drawLineBRESENHAMEiiiit
00024448 g     O .bss	00000001 OSPrioHighRdy
00010000 g     F .text	0000005c _fstat_r
0001e92c g     F .text	00000024 OSTaskDelHook
00024410 g     O .bss	00000004 errno
0000e44c g     F .text	00000008 __seofread
0001e768 g       .text	00000000 OSStartHighRdy
00019d38 g     F .text	000001e4 OSTaskCreateExt
00016b54 g     F .text	00000060 OSFlagPendGetFlagsRdy
00022406 g     O .rwdata	00000002 OSTaskStatStkSize
00006a40 g     F .text	00000074 .hidden _Unwind_Backtrace
00015cd0 g     F .text	00000308 OSFlagAccept
000180a4 g     F .text	000000b8 OSQFlush
00017b38 g     F .text	00000140 OSQAccept
00024428 g     O .bss	00000004 alt_argv
0002a324 g       *ABS*	00000000 _gp
000002c0 g     F .text	00000038 _ZN19ControllerInterface15getActiveButtonEv
00002918 g     F .text	000000b8 _ZN14VideoInterface5clearEt
00019b8c g     F .text	000001ac OSTaskCreate
0001969c g     F .text	000004f0 OSTaskChangePrio
0002443c g     O .bss	00000004 alt_heapsem
00012f68 g     F .text	00000020 getpid
0001fa60  w    O .rodata	0000000a _ZTS8Keyboard
00015b40 g     F .text	00000190 OSDebugInit
00004894 g     F .text	00000230 __cxa_call_unexpected
00019f1c g     F .text	00000344 OSTaskDel
00004ac4 g     F .text	00000008 __cxa_get_exception_ptr
00020d44 g     O .rwdata	00000180 alt_fd_list
0002a4d8 g     O .bss	00000370 OSFlagTbl
00006954 g     F .text	00000044 .hidden _Unwind_SjLj_ForcedUnwind
00014e08 g     F .text	000000b8 OS_EventTaskRemove
000067e4 g     F .text	00000018 .hidden _Unwind_GetCFA
00003a98 g     F .text	00000014 _ZSt13set_terminatePFvvE
0001df3c g     F .text	00000090 alt_find_dev
00007364 g     F .text	00000148 memcpy
00002208 g     F .text	000003a8 _ZN6PacMan5_drawEP14VideoInterface
000223f0 g     O .rwdata	00000002 OSRdyTblSize
0001cbac g     F .text	00000050 alt_up_character_lcd_write_fd
00004fec g     F .text	00000054 __cxa_allocate_dependent_exception
00000e14 g     F .text	0000110c _ZN4Game7drawMapEv
0000bb3c g     F .text	0000000c _cleanup_r
000036a8 g     F .text	00000018 _ZNK10__cxxabiv117__class_type_info20__do_find_public_srcEiPKvPKS0_S2_
000063a8 g     F .text	000000dc .hidden __floatsidf
0001e0c4 g     F .text	0000007c alt_io_redirect
00011b60 g     F .text	000000f4 .hidden __ltdf2
0001f0e0 g       *ABS*	00000000 __DTOR_END__
000036c0 g     F .text	00000010 _ZN10__cxxabiv117__class_type_infoD1Ev
0001d144 g     F .text	00000090 alt_up_irda_write_fd
0001da7c g     F .text	00000074 alt_up_rs232_read_data
00007700 g     F .text	00000014 puts
0001eca8 g     F .text	0000009c alt_exception_cause_generated_bad_addr
00000364 g     F .text	0000007c _ZN6Entity6updateEi
00013b1c g     F .text	00000120 OSEventNameGet
000223d4 g     O .rwdata	00000002 OSFlagMax
00002b0c g     F .text	00000064 _ZN14VideoInterface8drawRectEiiii
0000e384 g     F .text	00000074 __fpclassifyd
0000dc04 g     F .text	000000a4 __ratio
00014430 g     F .text	000000f8 OSIntExit
0000faa4 g     F .text	0000001c __vfiprintf_internal
000025b0 g     F .text	000000ec _ZN6PacMan7_updateEi
0002240e g     O .rwdata	00000002 OSTCBSize
00024449 g     O .bss	00000001 OSPrioCur
0001cf40 g     F .text	00000040 alt_up_irda_get_used_space_in_read_FIFO
0001c320 g     F .text	000002bc altera_avalon_jtag_uart_read
00006b30 g     F .text	00000014 malloc
000075d4 g     F .text	00000030 _printf_r
00011058 g     F .text	00000064 .hidden __udivsi3
00005218 g     F .text	00000084 roundf
00012fc4 g     F .text	000000a4 isatty
00007858 g     F .text	000000bc _raise_r
000223f4 g     O .rwdata	00000002 OSStkWidth
000200a0 g     O .rodata	000000c8 __mprec_tens
000223e8 g     O .rwdata	00000002 OSPtrSize
00000878 g     F .text	000002d0 _ZN4Game15distanceToWallsEP6EntityPiS2_S2_S2_
0000c9c8 g     F .text	0000000c __locale_charset
00005820 g     F .text	000000c8 .hidden __lesf2
000223c8 g     O .rwdata	00000002 OSEventTblSize
0001cee0 g     F .text	00000060 alt_up_irda_disable_read_interrupt
00002708 g     F .text	00000070 _ZN3VGA18_internalDrawPixelEiit
0001e6dc g       .text	00000000 OSCtxSw
0001ec18 g     F .text	00000090 alt_icache_flush
0002440c g     O .bss	00000004 __malloc_top_pad
0002444c g     O .bss	00000004 OSTCBList
00007a68 g     F .text	00000004 _getpid_r
00024420 g     O .bss	00000004 alt_fd_list_lock
0000213c g     F .text	000000cc _ZN6PacManC2Eii
0002238c g     O .rwdata	00000004 __mb_cur_max
0000c9f8 g     F .text	0000000c _localeconv_r
0000d230 g     F .text	0000003c __i2b
0000c308 g     F .text	000004bc __sfvwrite_r
00003840 g     F .text	000000b8 _ZNK10__cxxabiv117__class_type_info10__do_catchEPKSt9type_infoPPvj
00007914 g     F .text	000000a8 __sigtramp_r
0002a848 g     O .bss	00000c30 OSMemTbl
00024450 g     O .bss	00000001 OSTickStepState
0000269c g     F .text	0000006c _ZN3VGAC2EPsiii
00007714 g     F .text	00000054 _sbrk_r
00001fe4 g     F .text	00000158 _ZN8Keyboard6updateEv
0001fd78  w    O .rodata	00000020 _ZTVSt9type_info
000223ec g     O .rwdata	00000002 OSQMax
0002b478 g     O .bss	00000800 OSTaskStatStk
000176a8 g     F .text	000000f0 OSMemNameGet
000223cc g     O .rwdata	00000002 OSFlagEn
00010110 g     F .text	00000060 _read_r
000050d0 g     F .text	0000000c _ZNKSt9exception4whatEv
00022412 g     O .rwdata	00000002 OSTimeTickHookEn
00018554 g     F .text	00000168 OSQPost
00017340 g     F .text	000000a4 OS_FlagUnlink
000223a4 g     O .rwdata	00000004 alt_max_fd
0001d9f8 g     F .text	00000044 alt_up_rs232_check_parity
000153f4 g     F .text	00000068 OS_MemCopy
000028e0 g     F .text	00000038 _ZN14VideoInterface8setColorEt
0001545c g     F .text	000000d0 OS_Sched
0000fcf4 g     F .text	000000f0 _fclose_r
000175b8 g     F .text	000000f0 OSMemGet
0001a548 g     F .text	000001b4 OSTaskNameSet
0001d2a8 g     F .text	00000030 read_num_bytes_available
0000bb04 g     F .text	00000030 fflush
00024408 g     O .bss	00000004 __malloc_max_sbrked_mem
00024454 g     O .bss	00000004 OSCtxSwCtr
0001e990 g     F .text	00000020 OSTimeTickHook
0001e140 g     F .text	00000180 alt_irq_register
000223d6 g     O .rwdata	00000002 OSFlagNameSize
0001d210 g     F .text	00000034 read_RI_bit
00006484 g     F .text	00000110 .hidden __extendsfdf2
00014ec0 g     F .text	00000100 OS_EventTaskRemoveMulti
00005a7c g     F .text	000008ac .hidden __adddf3
0001fce0  w    O .rodata	0000002c _ZTVN10__cxxabiv120__si_class_type_infoE
00014cb8 g     F .text	00000150 OS_EventTaskWaitMulti
0000d9ac g     F .text	0000010c __b2d
000223ee g     O .rwdata	00000002 OSQSize
00010a28 g     F .text	00000538 .hidden __umoddi3
000132fc g     F .text	000000d4 lseek
00019004 g     F .text	0000020c OSSemPend
00003704 g     F .text	0000006c _ZNK10__cxxabiv117__class_type_info11__do_upcastEPKS0_PKvRNS0_15__upcast_resultE
00003994 g     F .text	00000004 _ZdlPv
00022384 g     O .rwdata	00000004 _global_impure_ptr
0000de20 g     F .text	00000564 _realloc_r
000223d8 g     O .rwdata	00000002 OSLowestPrio
0002d7fc g       *ABS*	00000000 __bss_end
0001ea10 g     F .text	00000024 OSTCBInitHook
0002241e g     O .rwdata	00000002 OSTmrCfgTicksPerSec
0001e5b0 g     F .text	00000108 alt_tick
0000679c g     F .text	00000018 .hidden _Unwind_SjLj_Register
000104b0 g     F .text	00000578 .hidden __udivdi3
00002778 g     F .text	00000070 _ZN14VideoInterfaceC2Eiii
0000ff5c g     F .text	00000024 _fputwc_r
000223c0 g     O .rwdata	00000002 OSEventEn
00020078 g     O .rodata	00000028 __mprec_bigtens
0000d014 g     F .text	00000104 __s2b
0002241a g     O .rwdata	00000002 OSTmrCfgNameSize
00006b18 g     F .text	00000018 abort
00012c68 g     F .text	000000a8 .hidden __floatunsidf
0000d6ec g     F .text	00000060 __mcmp
0001d30c g     F .text	0000002c read_data_byte
00004b80 g     F .text	000000b4 __cxa_end_catch
0000bea4 g     F .text	00000018 __fp_lock_all
000050cc g     F .text	00000004 _ZNSt13bad_exceptionD2Ev
0001716c g     F .text	000000e0 OS_FlagInit
0001e514 g     F .text	0000009c alt_alarm_stop
0001d244 g     F .text	00000030 read_RE_bit
000223fc g     O .rwdata	00000002 OSTaskIdleStkSize
00024490 g     O .bss	00000004 alt_irq_active
00018c3c g     F .text	000000b0 OSSemAccept
00003a58 g     F .text	00000018 _ZSt9terminatev
000178ac g     F .text	000000d8 OSMemPut
000173e4 g     F .text	000001d4 OSMemCreate
00024458 g     O .bss	00000004 OSIdleCtrMax
0001cf80 g     F .text	0000003c alt_up_irda_get_available_space_in_write_FIFO
000000fc g     F .exceptions	000000d8 alt_irq_handler
00020d1c g     O .rwdata	00000028 alt_dev_null
00022410 g     O .rwdata	00000002 OSTicksPerSec
000003e0 g     F .text	00000060 _ZN6Entity4drawEP14VideoInterface
000050f8 g     F .text	00000004 _ZN10__cxxabiv119__foreign_exceptionD2Ev
00022344  w    O .rwdata	00000005 _ZTS3VGA
0001ce4c g     F .text	00000038 alt_up_character_lcd_cursor_blink_on
0001e6dc g       .text	00000000 OSIntCtxSw
0001fd0c  w    O .rodata	00000022 _ZTSN10__cxxabiv117__class_type_infoE
0001d4bc g     F .text	00000074 alt_up_ps2_write_data_byte
0001dd7c g     F .text	00000020 alt_dcache_flush_all
0000d118 g     F .text	00000068 __hi0bits
00022364  w    O .rwdata	00000008 _ZTISt9exception
00006328 g     F .text	00000080 .hidden __fixdfsi
0002445c g     O .bss	00000004 OSTCBFreeList
00022438 g       *ABS*	00000000 __ram_rwdata_end
00019210 g     F .text	0000016c OSSemPendAbort
000038f8 g     F .text	00000004 _ZNSt9type_infoD1Ev
0002239c g     O .rwdata	00000008 alt_dev_list
000050f8 g     F .text	00000004 _ZN10__cxxabiv119__foreign_exceptionD1Ev
00013714 g     F .text	000000f8 write
00022414 g     O .rwdata	00000002 OSVersionNbr
0000390c g     F .text	00000004 _ZNSt9type_infoD0Ev
00005764 g     F .text	000000bc .hidden __gtsf2
0001fc2c  w    O .rodata	0000000c _ZTI6PacMan
000002f8 g     F .text	0000006c _ZN6EntityC2Eii
00020478 g       *ABS*	00000000 __ram_rodata_end
00012eb8 g     F .text	000000b0 fstat
0001db80 g     F .text	00000094 alt_up_rs232_write_fd
000130a4 g     F .text	00000130 kill
0000312c g     F .text	0000008c _Z4JTAGPKc
00000000 g       *ABS*	00000000 __alt_mem_SDRAM
00011b60 g     F .text	000000f4 .hidden __ledf2
000223bc g     O .rwdata	00000004 OSEndiannessTest
0000d464 g     F .text	00000140 __pow5mult
00000480 g     F .text	00000050 _ZN6Entity6setPosEii
0000e648 g     F .text	0000145c ___vfiprintf_internal_r
0002441c g     O .bss	00000004 __nlocale_changed
000110bc g     F .text	00000058 .hidden __umodsi3
00003904 g     F .text	00000008 _ZNKSt9type_info11__do_upcastEPKN10__cxxabiv117__class_type_infoEPPv
000223ce g     O .rwdata	00000002 OSFlagGrpSize
00003aac g     F .text	00000010 _ZSt13get_terminatev
0002d7fc g       *ABS*	00000000 end
0001d7ec g     F .text	00000098 alt_up_ps2_write_fd
000004d0 g     F .text	00000028 _ZN6Entity11getVelocityEv
0001cfbc g     F .text	00000044 alt_up_irda_check_parity
00006a28 g     F .text	00000018 .hidden _Unwind_DeleteException
0001bce0 g     F .text	0000013c altera_avalon_jtag_uart_init
000156c4 g     F .text	000000dc OS_TaskStat
000001d4 g     F .exceptions	00000074 alt_instruction_exception_entry
00003770 g     F .text	000000d0 _ZNK10__cxxabiv117__class_type_info12__do_dyncastEiNS0_10__sub_kindEPKS0_PKvS3_S5_RNS0_16__dyncast_resultE
0001f0dc g       *ABS*	00000000 __CTOR_LIST__
04000000 g       *ABS*	00000000 __alt_stack_pointer
0001c91c g     F .text	00000074 alt_avalon_timer_sc_init
00006ab4 g     F .text	00000064 .hidden __clzsi2
00003630 g     F .text	00000078 _ZNK10__cxxabiv117__class_type_info11__do_upcastEPKS0_PPv
0001c5dc g     F .text	000002c4 altera_avalon_jtag_uart_write
0000be94 g     F .text	00000004 __sfp_lock_acquire
0001fe08  w    O .rodata	00000012 _ZTSSt13bad_exception
0000cbe4 g     F .text	000000e4 memchr
000153a0 g     F .text	00000054 OS_MemClr
0001cab8 g     F .text	0000007c alt_up_character_lcd_write
00007be0 g     F .text	000021f8 ___vfprintf_internal_r
0001e7ac g     F .text	0000015c OSTaskStkInit
0000bff8 g     F .text	00000310 _free_r
0000c9d4 g     F .text	00000010 __locale_mb_cur_max
00014a10 g     F .text	00000198 OS_EventTaskRdy
0001ef24 g     F .text	00000180 __call_exitprocs
00024460 g     O .bss	00000001 OSCPUUsage
00024418 g     O .bss	00000004 __mlocale_changed
00001f20 g     F .text	000000c4 _ZN8KeyboardC1Ev
0002237c g     O .rwdata	00000004 __malloc_sbrk_base
00000248 g     F .text	0000003c _start
00024494 g     O .bss	00000004 _alt_tick_rate
0001815c g     F .text	0000028c OSQPend
00002a68 g     F .text	000000a4 _ZN14VideoInterface8drawLineEiiiit
0001fd68  w    O .rodata	0000000d _ZTSSt9type_info
0001ae08 g     F .text	00000104 OSTimeDly
00003954 g     F .text	00000020 __cxa_pure_virtual
0000d5a4 g     F .text	00000148 __lshift
00002778 g     F .text	00000070 _ZN14VideoInterfaceC1Eiii
00024498 g     O .bss	00000004 _alt_nticks
000079d0 g     F .text	00000018 signal
000134c8 g     F .text	000000fc read
0001fa54  w    O .rodata	0000000c _ZTI8Keyboard
0001b368 g     F .text	00000814 alt_sys_init
0001ccfc g     F .text	0000008c alt_up_character_lcd_shift_display
00005958 g     F .text	00000124 .hidden __floatsisf
00022334  w    O .rwdata	00000008 _ZTS6Entity
00002c20 g     F .text	000001c0 _ZN14VideoInterface12_drawLineDDAEiiiit
00000284 g     F .text	0000003c _ZN19ControllerInterfaceC2Ev
0001ee0c g     F .text	00000118 __register_exitproc
00024461 g     O .bss	00000001 OSTaskCtr
000033b0 g     F .text	00000160 _ZNK10__cxxabiv120__si_class_type_info12__do_dyncastEiNS_17__class_type_info10__sub_kindEPKS1_PKvS4_S6_RNS1_16__dyncast_resultE
0001d708 g     F .text	00000058 alt_up_ps2_clear_fifo
0001d9bc g     F .text	0000003c alt_up_rs232_get_available_space_in_write_FIFO
0001af0c g     F .text	00000160 OSTimeDlyHMSM
0000d26c g     F .text	000001f8 __multiply
0001cd88 g     F .text	0000008c alt_up_character_lcd_erase_pos
0001c1c8 g     F .text	00000068 altera_avalon_jtag_uart_close
00020478 g       *ABS*	00000000 __ram_rwdata_start
00006884 g     F .text	000000d0 .hidden _Unwind_SjLj_RaiseException
0001f0e0 g       *ABS*	00000000 __ram_rodata_start
0002a4b0 g     O .bss	00000028 __malloc_current_mallinfo
00006998 g     F .text	00000044 .hidden _Unwind_SjLj_Resume
000223c2 g     O .rwdata	00000002 OSEventMax
0000dab8 g     F .text	0000014c __d2b
0001fea8  w    O .rodata	00000014 _ZTVN10__cxxabiv119__foreign_exceptionE
0001937c g     F .text	00000110 OSSemPost
000038f8 g     F .text	00000004 _ZNSt9type_infoD2Ev
0001fc38  w    O .rodata	0000000c _ZTV3VGA
000050fc g     F .text	00000004 _ZN10__cxxabiv119__foreign_exceptionD0Ev
000145b4 g     F .text	000000dc OSSchedUnlock
000035ac g     F .text	00000084 _ZNK10__cxxabiv120__si_class_type_info11__do_upcastEPKNS_17__class_type_infoEPKvRNS1_15__upcast_resultE
0001bb7c g     F .text	00000060 altera_avalon_jtag_uart_read_fd
0001eb3c g     F .text	000000dc alt_get_fd
00024464 g     O .bss	00000004 OSMemFreeList
00014700 g     F .text	000000b0 OSStatInit
00016f48 g     F .text	000000c4 OSFlagQuery
00000440 g     F .text	00000040 _ZN6Entity6setDirE5E_DIR
00022374  w    O .rwdata	00000008 _ZTIN10__cxxabiv119__foreign_exceptionE
000223f8 g     O .rwdata	00000002 OSTaskCreateExtEn
0000fbdc g     F .text	00000054 _close_r
0001f0ec  w    O .rodata	00000016 _ZTS19ControllerInterface
0001fc44  w    O .rodata	0000000c _ZTI3VGA
0001ed90 g     F .text	0000007c memcmp
000149f0 g     F .text	00000020 OS_Dummy
0001bc3c g     F .text	00000050 altera_avalon_jtag_uart_close_fd
0002d7fc g       *ABS*	00000000 __alt_stack_base
0001bc8c g     F .text	00000054 altera_avalon_jtag_uart_ioctl_fd
0000336c g     F .text	00000010 _ZN10__cxxabiv120__si_class_type_infoD1Ev
0001ce84 g     F .text	0000005c alt_up_irda_enable_read_interrupt
00009eb0 g     F .text	00000154 __swsetup_r
0002bc78 g     O .bss	000001e0 OSQTbl
000069dc g     F .text	0000004c .hidden _Unwind_SjLj_Resume_or_Rethrow
00011114 g     F .text	000008e8 .hidden __divdf3
0000bd54 g     F .text	00000118 __sfp
0000dd1c g     F .text	00000078 __copybits
000038fc g     F .text	00000008 _ZNKSt9type_info14__is_pointer_pEv
00020478 g     O .rwdata	00000408 __malloc_av_
0000bea0 g     F .text	00000004 __sinit_lock_release
00024468 g     O .bss	00000004 OSTCBHighRdy
00011c54 g     F .text	00000718 .hidden __muldf3
0000e3f8 g     F .text	00000054 __sread
0001fe6c  w    O .rodata	00000014 _ZTVSt9exception
000050f4 g     F .text	00000004 _ZN10__cxxabiv115__forced_unwindD0Ev
0001fc1c  w    O .rodata	00000010 _ZTV6PacMan
0002446c g     O .bss	00000004 OSQFreeList
0001d91c g     F .text	00000060 alt_up_rs232_disable_read_interrupt
0001ea34 g     F .text	00000108 alt_find_file
00000d54 g     F .text	00000044 _ZN4Game8walkableE10map_item_t
0001ddd8 g     F .text	000000a4 alt_dev_llist_insert
00013930 g     F .text	00000120 __malloc_lock
00013628 g     F .text	000000b0 sbrk
0001fd3c  w    O .rodata	0000002c _ZTVN10__cxxabiv117__class_type_infoE
00004c98 g     F .text	00000090 __cxa_throw
00013c3c g     F .text	00000140 OSEventNameSet
0000baa8 g     F .text	0000005c _fflush_r
00006848 g     F .text	00000010 .hidden _Unwind_SetIP
0000fc30 g     F .text	000000c4 _calloc_r
00024470 g     O .bss	00000001 OSRdyGrp
000243f8 g       *ABS*	00000000 __bss_start
0001fc50  w    O .rodata	00000011 _ZTS14VideoInterface
00000520 g     F .text	00000028 _ZN6Entity4getYEv
000074ac g     F .text	00000128 memset
0001f0e0  w    O .rodata	0000000c _ZTV19ControllerInterface
000031b8 g     F .text	000000d8 main
0002442c g     O .bss	00000004 alt_envp
00024404 g     O .bss	00000004 __malloc_max_total_mem
0001bbdc g     F .text	00000060 altera_avalon_jtag_uart_write_fd
0001f104  w    O .rodata	00000010 _ZTV6Entity
000102b0 g     F .text	00000018 __swbuf
00005100 g     F .text	0000000c __cxa_get_globals_fast
000201a4 g     O .rodata	00000100 OSUnMapTbl
00005820 g     F .text	000000c8 .hidden __ltsf2
000223f2 g     O .rwdata	00000002 OSSemEn
0001cc70 g     F .text	0000008c alt_up_character_lcd_shift_cursor
00016bb4 g     F .text	00000394 OSFlagPost
0000e52c g     F .text	00000008 __sclose
04000000 g       *ABS*	00000000 __alt_heap_limit
0000fde4 g     F .text	00000014 fclose
00014ba8 g     F .text	00000110 OS_EventTaskWait
000264a0 g     O .bss	00002000 task2_stk
00001f20 g     F .text	000000c4 _ZN8KeyboardC2Ev
0001d698 g     F .text	00000070 alt_up_ps2_read_data_byte
000157a0 g     F .text	000000cc OS_TaskStatStkChk
0001a260 g     F .text	00000150 OSTaskDelReq
0000a204 g     F .text	00001688 _dtoa_r
00006b58 g     F .text	0000080c _malloc_r
00010424 g     F .text	00000030 __ascii_wctomb
000050dc g     F .text	0000000c _ZNKSt13bad_exception4whatEv
000223a8 g     O .rwdata	00000004 alt_errno
00014690 g     F .text	00000070 OSStart
000284a0 g     O .bss	00002000 task3_stk
000079e8 g     F .text	00000010 _init_signal
000138d0 g     F .text	00000060 __env_unlock
0001fd30  w    O .rodata	0000000c _ZTIN10__cxxabiv117__class_type_infoE
0000c7c4 g     F .text	000000c4 _fwalk
0001a6fc g     F .text	000001d4 OSTaskResume
00017984 g     F .text	000000e8 OSMemQuery
00022404 g     O .rwdata	00000002 OSTaskStatEn
0001d000 g     F .text	00000040 alt_up_irda_write_data
000223de g     O .rwdata	00000002 OSMemMax
000186bc g     F .text	00000170 OSQPostFront
000050cc g     F .text	00000004 _ZNSt13bad_exceptionD1Ev
0001fc64  w    O .rodata	0000000c _ZTV14VideoInterface
0001d884 g     F .text	0000003c alt_up_ps2_open_dev
00010f60 g     F .text	00000084 .hidden __divsi3
00024471 g     O .bss	00000003 OSRdyTbl
000223b8 g     O .rwdata	00000002 OSDebugEn
0001ca7c g     F .text	0000003c alt_up_character_lcd_open_dev
0000bed4 g     F .text	00000124 _malloc_trim_r
0001d400 g     F .text	0000005c alt_up_ps2_enable_read_interrupt
00022324  w    O .rwdata	00000008 _ZTI19ControllerInterface
0001f0e0 g       *ABS*	00000000 __CTOR_END__
000223d0 g     O .rwdata	00000002 OSFlagNodeSize
00022418 g     O .rwdata	00000002 OSTmrCfgMax
0001ca44 g     F .text	00000038 alt_up_character_lcd_init
00007a6c g     F .text	000000dc strcmp
00017c78 g     F .text	000001ac OSQCreate
0001a3b0 g     F .text	00000198 OSTaskNameGet
0001f0e0 g       *ABS*	00000000 __flash_rodata_start
0001882c g     F .text	0000020c OSQPostOpt
000147b0 g     F .text	00000220 OSTimeTick
0001fe94  w    O .rodata	00000014 _ZTVN10__cxxabiv115__forced_unwindE
00022400 g     O .rwdata	00000002 OSTaskMax
0001f0e0 g       *ABS*	00000000 __DTOR_LIST__
00018cec g     F .text	000000d8 OSSemCreate
00022424 g     O .rwdata	00000002 OSTmrWheelSize
0001dc14 g     F .text	0000003c alt_up_rs232_open_dev
000119fc g     F .text	00000088 .hidden __nedf2
000223fa g     O .rwdata	00000002 OSTaskDelEn
0001948c g     F .text	00000110 OSSemQuery
00017e24 g     F .text	00000280 OSQDel
000183e8 g     F .text	0000016c OSQPendAbort
0001b330 g     F .text	00000038 alt_irq_init
000135c4 g     F .text	00000064 alt_release_fd
0000337c g     F .text	00000034 _ZN10__cxxabiv120__si_class_type_infoD0Ev
0001d2d8 g     F .text	00000034 read_data_valid
0001ce14 g     F .text	00000038 alt_up_character_lcd_cursor_off
0001febc g     O .rodata	00000100 .hidden __clz_tab
00024414 g     O .bss	00000004 _PathLocale
0001d598 g     F .text	00000064 alt_up_ps2_write_data_byte_with_ack
0001ed44 g     F .text	00000014 atexit
00005764 g     F .text	000000bc .hidden __gesf2
0000fb7c g     F .text	00000060 _write_r
00014528 g     F .text	0000008c OSSchedLock
0000ca04 g     F .text	00000018 setlocale
0000687c g     F .text	00000008 .hidden _Unwind_GetTextRelBase
00004dac g     F .text	00000058 __cxa_call_terminate
00015fd8 g     F .text	00000108 OSFlagCreate
000029d0 g     F .text	00000034 _ZN14VideoInterface10setLineAlgE9viLineAlg
00022388 g     O .rwdata	00000004 _impure_ptr
0002236c  w    O .rwdata	00000008 _ZTIN10__cxxabiv115__forced_unwindE
00024424 g     O .bss	00000004 alt_argc
0000b88c g     F .text	0000021c __sflush_r
0001dedc g     F .text	00000060 _do_dtors
0002234c  w    O .rwdata	00000008 _ZTI14VideoInterface
0000c9f0 g     F .text	00000008 __locale_cjk_lang
000004f8 g     F .text	00000028 _ZN6Entity4getXEv
000223ca g     O .rwdata	00000002 OSEventMultiEn
00002b70 g     F .text	000000b0 _ZN14VideoInterface8drawRectEiiiit
0002232c  w    O .rwdata	00000008 _ZTI6Entity
09000000 g       *ABS*	00000000 __alt_mem_VGA_Subsystem_Char_Buf_Subsystem_Onchip_SRAM
000160e0 g     F .text	00000248 OSFlagDel
00024474 g     O .bss	00000004 OSEventFreeList
00003ad0 g     F .text	00000010 _ZSt14get_unexpectedv
00000020 g       .exceptions	00000000 alt_irq_entry
0000269c g     F .text	0000006c _ZN3VGAC1EPsiii
0000d948 g     F .text	00000064 __ulp
0000686c g     F .text	00000008 .hidden _Unwind_FindEnclosingFunction
0001659c g     F .text	000005b8 OSFlagPend
00022416 g     O .rwdata	00000002 OSTmrEn
0000bebc g     F .text	00000018 __fp_unlock_all
00022394 g     O .rwdata	00000008 alt_fs_list
0001fe48  w    O .rodata	00000024 _ZTSN10__cxxabiv119__foreign_exceptionE
000155a0 g     F .text	00000074 OS_StrCopy
0001d8c0 g     F .text	0000005c alt_up_rs232_enable_read_interrupt
00006858 g     F .text	0000000c .hidden _Unwind_GetLanguageSpecificData
0001da3c g     F .text	00000040 alt_up_rs232_write_data
00004acc g     F .text	000000b4 __cxa_begin_catch
000223e0 g     O .rwdata	00000002 OSMemNameSize
000036c0 g     F .text	00000010 _ZN10__cxxabiv117__class_type_infoD2Ev
00003a70 g     F .text	00000010 _ZN10__cxxabiv112__unexpectedEPFvvE
0001e9d0 g     F .text	00000020 OSInitHookEnd
0002233c  w    O .rwdata	00000008 _ZTS6PacMan
00000284 g     F .text	0000003c _ZN19ControllerInterfaceC1Ev
00000020 g       *ABS*	00000000 __ram_exceptions_start
0002240c g     O .rwdata	00000002 OSTCBPrioTblMax
0000ca1c g     F .text	0000000c localeconv
00022408 g     O .rwdata	00000002 OSTaskStatStkChkEn
000050ec g     F .text	00000004 _ZNSt13bad_exceptionD0Ev
0002235c g     O .rwdata	00000004 _ZN10__cxxabiv119__terminate_handlerE
000223dc g     O .rwdata	00000002 OSMemEn
00004f64 g     F .text	00000060 __cxa_allocate_exception
000223e6 g     O .rwdata	00000002 OSMutexEn
0001fcd4  w    O .rodata	0000000c _ZTIN10__cxxabiv120__si_class_type_infoE
0000213c g     F .text	000000cc _ZN6PacManC1Eii
00022438 g       *ABS*	00000000 _edata
00000570 g     F .text	000000d4 _ZN4GameC2EP19ControllerInterfaceP14VideoInterface
0002d7fc g       *ABS*	00000000 _end
00024478 g     O .bss	00000001 OSIntNesting
00004294 g     F .text	00000600 __gxx_personality_sj0
0000fdf8 g     F .text	00000164 __fputwc
00000248 g       *ABS*	00000000 __ram_exceptions_end
00000644 g     F .text	000001dc _ZN4Game6updateEi
0001c230 g     F .text	000000f0 altera_avalon_jtag_uart_ioctl
0001b06c g     F .text	000001d4 OSTimeDlyResume
0001fa48  w    O .rodata	0000000c _ZTV8Keyboard
00016450 g     F .text	0000014c OSFlagNameSet
00000b48 g     F .text	0000020c _ZN4Game14updateMovementEP6Entityi
000050c8 g     F .text	00000004 _ZNSt9exceptionD1Ev
0001a8d0 g     F .text	000001c0 OSTaskStkChk
000223e2 g     O .rwdata	00000002 OSMemSize
0000e454 g     F .text	0000007c __swrite
00022380 g     O .rwdata	00000004 __malloc_trim_threshold
0000c9e4 g     F .text	0000000c __locale_msgcharset
0002447c g     O .bss	00000004 OSTCBCur
0001ed58 g     F .text	00000038 exit
000067fc g     F .text	0000001c .hidden _Unwind_SetGR
0001d040 g     F .text	00000074 alt_up_irda_read_data
000223e4 g     O .rwdata	00000002 OSMemTblSize
0000c888 g     F .text	000000c4 _fwalk_reent
00003510 g     F .text	0000009c _ZNK10__cxxabiv120__si_class_type_info20__do_find_public_srcEiPKvPKNS_17__class_type_infoES2_
0001d338 g     F .text	000000c8 alt_up_ps2_init
0000d74c g     F .text	000001fc __mdiff
00003998 g     F .text	000000c0 _ZN10__cxxabiv111__terminateEPFvvE
0000283c g     F .text	000000a4 _ZN14VideoInterface9drawPixelEiit
00010fe4 g     F .text	00000074 .hidden __modsi3
00000d98 g     F .text	0000007c _ZN4Game4drawEv
04000000 g       *ABS*	00000000 __alt_data_end
00000020 g     F .exceptions	00000000 alt_exception
0000be98 g     F .text	00000004 __sfp_lock_release
0001438c g     F .text	00000058 OSInit
0001fe1c  w    O .rodata	0000000c _ZTISt13bad_exception
0001ac74 g     F .text	00000124 OSTaskQuery
0001cb34 g     F .text	00000078 alt_up_character_lcd_string
00018b94 g     F .text	000000a8 OS_QInit
00015614 g     F .text	00000054 OS_StrLen
0001d1d4 g     F .text	0000003c alt_up_irda_open_dev
00017798 g     F .text	00000114 OSMemNameSet
000223fe g     O .rwdata	00000002 OSTaskProfileEn
00024480 g     O .bss	00000004 OSTime
000002f8 g     F .text	0000006c _ZN6EntityC1Eii
0002be58 g     O .bss	00000800 OSTaskIdleStk
00012e48 g     F .text	00000034 _exit
0001dc50 g     F .text	0000012c alt_alarm_start
00016328 g     F .text	00000128 OSFlagNameGet
0000332c g     F .text	00000040 _Z8GameLoopPv
0001b240 g     F .text	0000005c OSTimeGet
000067c8 g     F .text	0000001c .hidden _Unwind_GetGR
0000510c g     F .text	0000000c __cxa_get_globals
0000ca28 g     F .text	000001bc __smakebuf_r
00022360 g     O .rwdata	00000004 _ZN10__cxxabiv120__unexpected_handlerE
0001d530 g     F .text	00000068 alt_up_ps2_wait_for_ack
00007b48 g     F .text	00000098 strlen
00007768 g     F .text	0000006c _init_signal_r
00022354  w    O .rwdata	00000008 _ZTISt9type_info
0001e950 g     F .text	00000020 OSTaskSwHook
0001e3c0 g     F .text	00000154 open
0002c658 g     O .bss	00000b40 OSEventTbl
00011a84 g     F .text	000000dc .hidden __gedf2
0001fdf8  w    O .rodata	0000000d _ZTSSt9exception
0002d198 g     O .bss	00000510 OSTCBTbl
0001959c g     F .text	00000100 OSSemSet
00022390 g     O .rwdata	00000004 __wctomb
000050e8 g     F .text	00000004 _ZNSt9exceptionD0Ev
0000e630 g     F .text	00000018 __sprint_r
0001dfcc g     F .text	00000034 alt_icache_flush_all
00006874 g     F .text	00000008 .hidden _Unwind_GetDataRelBase
0001cbfc g     F .text	00000074 alt_up_character_lcd_set_cursor_pos
0002242c g     O .rwdata	00000004 alt_priority_mask
00018dc4 g     F .text	00000240 OSSemDel
00024484 g     O .bss	00000004 OSFlagFreeList
000223c4 g     O .rwdata	00000002 OSEventNameSize
00009dd8 g     F .text	0000001c __vfprintf_internal
00024488 g     O .bss	00000001 OSStatRdy
0002d6a8 g     O .bss	00000054 OSTCBPrioTbl
00010454 g     F .text	0000005c _wctomb_r
0001380c g     F .text	000000c4 __env_lock
0001d760 g     F .text	0000008c alt_up_ps2_read_fd
0002240a g     O .rwdata	00000002 OSTaskSwHookEn
0001236c g     F .text	000008fc .hidden __subdf3
0001d0b4 g     F .text	00000090 alt_up_irda_read_fd
00003290 g     F .text	00000048 _Z7gfxLoopPv
0000d180 g     F .text	000000b0 __lo0bits
00022430 g     O .rwdata	00000008 alt_alarm_list
000223d2 g     O .rwdata	00000002 OSFlagWidth
0001de7c g     F .text	00000060 _do_ctors
000079f8 g     F .text	00000014 __sigtramp
0001d97c g     F .text	00000040 alt_up_rs232_get_used_space_in_read_FIFO
00010364 g     F .text	000000c0 wcrtomb
00012d4c g     F .text	000000d0 close
0000529c g     F .text	000004c8 .hidden __addsf3
00024434 g     O .bss	00000004 alt_envsem
0002448c g     O .bss	00000004 OSIdleCtrRun
00000820 g     F .text	00000058 _ZN4Game11setInSquareEP6Entityii
000149d0 g     F .text	00000020 OSVersion
0002241c g     O .rwdata	00000002 OSTmrCfgWheelSize
0001fe28  w    O .rodata	00000020 _ZTSN10__cxxabiv115__forced_unwindE
0001323c g     F .text	00000084 alt_load
0001ad98 g     F .text	00000070 OS_TaskStkClr
000223f6 g     O .rwdata	00000002 OSTaskCreateEn
00003910 g     F .text	00000044 _ZNKSt9type_info10__do_catchEPKS_PPvj
00014fc0 g     F .text	00000068 OS_EventWaitListInit
0000ff80 g     F .text	00000080 fputwc
000079bc g     F .text	00000014 raise
0001e9f0 g     F .text	00000020 OSTaskIdleHook
00006b44 g     F .text	00000014 free
0000be9c g     F .text	00000004 __sinit_lock_acquire
0000cef4 g     F .text	00000120 __multadd
000036d0 g     F .text	00000034 _ZN10__cxxabiv117__class_type_infoD0Ev
0001aa90 g     F .text	000001e4 OSTaskSuspend
0000cecc g     F .text	00000028 _Bfree
00015668 g     F .text	0000005c OS_TaskIdle
00022422 g     O .rwdata	00000002 OSTmrTblSize
00018a38 g     F .text	0000015c OSQQuery



Disassembly of section .entry:

00000000 <__reset>:
#if NIOS2_ICACHE_SIZE > 0 && defined(ALT_ALLOW_CODE_AT_RESET) && (!defined(ALT_SIM_OPTIMIZE) || defined(NIOS2_ECC_PRESENT))
    /* Assume the instruction cache size is always a power of two. */
#if NIOS2_ICACHE_SIZE > 0x8000
    movhi r2, %hi(NIOS2_ICACHE_SIZE)
#else
    movui r2, NIOS2_ICACHE_SIZE
   0:	00840014 	movui	r2,4096
#endif

0:
    initi r2
   4:	1001483a 	initi	r2
    addi r2, r2, -NIOS2_ICACHE_LINE_SIZE
   8:	10bff804 	addi	r2,r2,-32
    bgt r2, zero, 0b
   c:	00bffd16 	blt	zero,r2,4 <__alt_mem_VGA_Subsystem_Char_Buf_Subsystem_Onchip_SRAM+0xf7000004>
 * Jump to the _start entry point in the .text section if reset code
 * is allowed or if optimizing for RTL simulation.
 */
#if defined(ALT_ALLOW_CODE_AT_RESET) || defined(ALT_SIM_OPTIMIZE)
    /* Jump to the _start entry point in the .text section. */
    movhi r1, %hi(_start)
  10:	00400034 	movhi	at,0
    ori r1, r1, %lo(_start)
  14:	08409214 	ori	at,at,584
    jmp r1
  18:	0800683a 	jmp	at
  1c:	00000000 	call	0 <__reset>

Disassembly of section .exceptions:

00000020 <alt_exception>:

#else /* ALT_EXCEPTION_STACK disabled */
        /* 
         * Reserve space on normal stack for registers about to be pushed.
         */
        addi  sp, sp, -76
  20:	deffed04 	addi	sp,sp,-76
         * documentation for details).
         *
         * Leave a gap in the stack frame at 4(sp) for the muldiv handler to
         * store zero into.
         */
        stw   ra,  0(sp)
  24:	dfc00015 	stw	ra,0(sp)
        stw   r1,   8(sp)
  28:	d8400215 	stw	at,8(sp)
        stw   r2,  12(sp)
  2c:	d8800315 	stw	r2,12(sp)
        stw   r3,  16(sp)
  30:	d8c00415 	stw	r3,16(sp)
        stw   r4,  20(sp)
  34:	d9000515 	stw	r4,20(sp)
        stw   r5,  24(sp)
  38:	d9400615 	stw	r5,24(sp)
        stw   r6,  28(sp)
  3c:	d9800715 	stw	r6,28(sp)
        stw   r7,  32(sp)
  40:	d9c00815 	stw	r7,32(sp)
        rdctl r5, estatus   /* Read early to avoid usage stall */
  44:	000b307a 	rdctl	r5,estatus
        stw   r8,  36(sp)
  48:	da000915 	stw	r8,36(sp)
        stw   r9,  40(sp)
  4c:	da400a15 	stw	r9,40(sp)
        stw   r10, 44(sp)
  50:	da800b15 	stw	r10,44(sp)
        stw   r11, 48(sp)
  54:	dac00c15 	stw	r11,48(sp)
        stw   r12, 52(sp)
  58:	db000d15 	stw	r12,52(sp)
        stw   r13, 56(sp)
  5c:	db400e15 	stw	r13,56(sp)
        stw   r14, 60(sp)
  60:	db800f15 	stw	r14,60(sp)
        stw   r15, 64(sp)
  64:	dbc01015 	stw	r15,64(sp)
        /*
         * ea-4 contains the address of the instruction being executed
         * when the exception occured. For interrupt exceptions, we will
         * will be re-issue the isntruction. Store it in 72(sp)
         */
        stw   r5,  68(sp)  /* estatus */
  68:	d9401115 	stw	r5,68(sp)
        addi  r15, ea, -4  /* instruction that caused exception */
  6c:	ebffff04 	addi	r15,ea,-4
        stw   r15,  72(sp)
  70:	dbc01215 	stw	r15,72(sp)
#else
        /*
         * Test to see if the exception was a software exception or caused 
         * by an external interrupt, and vector accordingly.
         */
        rdctl r4, ipending
  74:	0009313a 	rdctl	r4,ipending
        andi  r2, r5, 1
  78:	2880004c 	andi	r2,r5,1
        beq   r2, zero, .Lnot_irq
  7c:	10000326 	beq	r2,zero,8c <OSCtxSw_SWITCH_PC+0x4c>
        beq   r4, zero, .Lnot_irq
  80:	20000226 	beq	r4,zero,8c <OSCtxSw_SWITCH_PC+0x4c>
        /*
         * Now that all necessary registers have been preserved, call 
         * alt_irq_handler() to process the interrupts.
         */

        call alt_irq_handler
  84:	00000fc0 	call	fc <alt_irq_handler>

        .section .exceptions.irqreturn, "xa"

        br    .Lexception_exit
  88:	00000706 	br	a8 <OSCtxSw_SWITCH_PC+0x68>
         * upon completion, so we write ea (address of instruction *after*
         * the one where the exception occured) into 72(sp). The actual
         * instruction that caused the exception is written in r2, which these
         * handlers will utilize.
         */
        stw ea, 72(sp) /* EA is PC+4 so will skip over instruction causing exception */
  8c:	df401215 	stw	ea,72(sp)
.Lunknown_16bit:
        addi.n r4, r4, 2 /* Need PC+2 to skip over instruction causing exception */
        stw r4, 72(sp)

#else /* CDX is not Enabled and all instructions are 32bits */
        ldw r2, -4(ea) /* Instruction value that caused exception */
  90:	e8bfff17 	ldw	r2,-4(ea)
         * debugger is present) or go into an infinite loop since the
         * handling behavior is undefined; in that case we will not return here.
         */

        /* Load exception-causing address as first argument (r4) */
        addi   r4, ea, -4
  94:	e93fff04 	addi	r4,ea,-4

        /* Call the instruction-exception entry */
        call   alt_instruction_exception_entry
  98:	00001d40 	call	1d4 <alt_instruction_exception_entry>
         * instruction
         *
         * Return code was 0: Skip. The instruction after the exception is
         * already stored in 72(sp).
         */
        bne   r2, r0, .Lexception_exit
  9c:	1000021e 	bne	r2,zero,a8 <OSCtxSw_SWITCH_PC+0x68>

        /*
         * Otherwise, modify 72(sp) to re-issue the instruction that caused the
         * exception.
         */
        addi  r15, ea, -4  /* instruction that caused exception */
  a0:	ebffff04 	addi	r15,ea,-4
        stw   r15,  72(sp)
  a4:	dbc01215 	stw	r15,72(sp)
        /* 
         * Restore the saved registers, so that all general purpose registers 
         * have been restored to their state at the time the interrupt occured.
         */

        ldw   r5,  68(sp)
  a8:	d9401117 	ldw	r5,68(sp)
        ldw   ea,  72(sp)  /* This becomes the PC once eret is executed */
  ac:	df401217 	ldw	ea,72(sp)
        ldw   ra,   0(sp)
  b0:	dfc00017 	ldw	ra,0(sp)

        wrctl estatus, r5
  b4:	2801707a 	wrctl	estatus,r5

        ldw   r1,   8(sp)
  b8:	d8400217 	ldw	at,8(sp)
        ldw   r2,  12(sp)
  bc:	d8800317 	ldw	r2,12(sp)
        ldw   r3,  16(sp)
  c0:	d8c00417 	ldw	r3,16(sp)
        ldw   r4,  20(sp)
  c4:	d9000517 	ldw	r4,20(sp)
        ldw   r5,  24(sp)
  c8:	d9400617 	ldw	r5,24(sp)
        ldw   r6,  28(sp)
  cc:	d9800717 	ldw	r6,28(sp)
        ldw   r7,  32(sp)
  d0:	d9c00817 	ldw	r7,32(sp)

#if defined(ALT_EXCEPTION_STACK) && defined(ALT_STACK_CHECK)
        ldw   et, %gprel(alt_exception_old_stack_limit)(gp)
#endif

        ldw   r8,  36(sp)
  d4:	da000917 	ldw	r8,36(sp)
        ldw   r9,  40(sp)
  d8:	da400a17 	ldw	r9,40(sp)
        ldw   r10, 44(sp)
  dc:	da800b17 	ldw	r10,44(sp)
        ldw   r11, 48(sp)
  e0:	dac00c17 	ldw	r11,48(sp)
        ldw   r12, 52(sp)
  e4:	db000d17 	ldw	r12,52(sp)
        ldw   r13, 56(sp)
  e8:	db400e17 	ldw	r13,56(sp)
        ldw   r14, 60(sp)
  ec:	db800f17 	ldw	r14,60(sp)
        ldw   r15, 64(sp)
  f0:	dbc01017 	ldw	r15,64(sp)
        stw   et, %gprel(alt_stack_limit_value)(gp)
        stw   zero, %gprel(alt_exception_old_stack_limit)(gp)
#endif /* ALT_STACK_CHECK */
        ldw   sp,  76(sp)
#else /* ALT_EXCEPTION_STACK disabled */
        addi  sp, sp, 76
  f4:	dec01304 	addi	sp,sp,76

        /*
         * Return to the interrupted instruction.
         */

        eret
  f8:	ef80083a 	eret

000000fc <alt_irq_handler>:
 * instruction is present if the macro ALT_CI_INTERRUPT_VECTOR defined.
 */

void alt_irq_handler (void) __attribute__ ((section (".exceptions")));
void alt_irq_handler (void)
{
  fc:	defff904 	addi	sp,sp,-28
 100:	dfc00615 	stw	ra,24(sp)
 104:	df000515 	stw	fp,20(sp)
 108:	df000504 	addi	fp,sp,20
  
  /*
   * Notify the operating system that we are at interrupt level.
   */ 
  
  ALT_OS_INT_ENTER();
 10c:	00143e40 	call	143e4 <OSIntEnter>
#ifndef NIOS2_EIC_PRESENT
static ALT_INLINE alt_u32 ALT_ALWAYS_INLINE alt_irq_pending (void)
{
  alt_u32 active;

  NIOS2_READ_IPENDING (active);
 110:	0005313a 	rdctl	r2,ipending
 114:	e0bffe15 	stw	r2,-8(fp)

  return active;
 118:	e0bffe17 	ldw	r2,-8(fp)
   * Consider the case where the high priority interupt is asserted during
   * the interrupt entry sequence for a lower priority interrupt to see why
   * this is the case.
   */

  active = alt_irq_pending ();
 11c:	e0bffb15 	stw	r2,-20(fp)

  do
  {
    i = 0;
 120:	e03ffd15 	stw	zero,-12(fp)
    mask = 1;
 124:	00800044 	movi	r2,1
 128:	e0bffc15 	stw	r2,-16(fp)
     * called to clear the interrupt condition.
     */

    do
    {
      if (active & mask)
 12c:	e0fffb17 	ldw	r3,-20(fp)
 130:	e0bffc17 	ldw	r2,-16(fp)
 134:	1884703a 	and	r2,r3,r2
 138:	10001526 	beq	r2,zero,190 <alt_irq_handler+0x94>
      { 
#ifdef ALT_ENHANCED_INTERRUPT_API_PRESENT
        alt_irq[i].handler(alt_irq[i].context); 
#else
        alt_irq[i].handler(alt_irq[i].context, i); 
 13c:	008000f4 	movhi	r2,3
 140:	10b5bf04 	addi	r2,r2,-10500
 144:	e0fffd17 	ldw	r3,-12(fp)
 148:	180690fa 	slli	r3,r3,3
 14c:	10c5883a 	add	r2,r2,r3
 150:	10c00017 	ldw	r3,0(r2)
 154:	008000f4 	movhi	r2,3
 158:	10b5bf04 	addi	r2,r2,-10500
 15c:	e13ffd17 	ldw	r4,-12(fp)
 160:	200890fa 	slli	r4,r4,3
 164:	1105883a 	add	r2,r2,r4
 168:	10800104 	addi	r2,r2,4
 16c:	10800017 	ldw	r2,0(r2)
 170:	e17ffd17 	ldw	r5,-12(fp)
 174:	1009883a 	mov	r4,r2
 178:	183ee83a 	callr	r3
#endif
        break;
 17c:	0001883a 	nop
#ifndef NIOS2_EIC_PRESENT
static ALT_INLINE alt_u32 ALT_ALWAYS_INLINE alt_irq_pending (void)
{
  alt_u32 active;

  NIOS2_READ_IPENDING (active);
 180:	0005313a 	rdctl	r2,ipending
 184:	e0bfff15 	stw	r2,-4(fp)

  return active;
 188:	e0bfff17 	ldw	r2,-4(fp)
 18c:	00000706 	br	1ac <alt_irq_handler+0xb0>
      }
      mask <<= 1;
 190:	e0bffc17 	ldw	r2,-16(fp)
 194:	1085883a 	add	r2,r2,r2
 198:	e0bffc15 	stw	r2,-16(fp)
      i++;
 19c:	e0bffd17 	ldw	r2,-12(fp)
 1a0:	10800044 	addi	r2,r2,1
 1a4:	e0bffd15 	stw	r2,-12(fp)

    } while (1);
 1a8:	003fe006 	br	12c <__alt_mem_VGA_Subsystem_Char_Buf_Subsystem_Onchip_SRAM+0xf700012c>

    active = alt_irq_pending ();
 1ac:	e0bffb15 	stw	r2,-20(fp)
    
  } while (active);
 1b0:	e0bffb17 	ldw	r2,-20(fp)
 1b4:	103fda1e 	bne	r2,zero,120 <__alt_mem_VGA_Subsystem_Char_Buf_Subsystem_Onchip_SRAM+0xf7000120>

  /*
   * Notify the operating system that interrupt processing is complete.
   */ 

  ALT_OS_INT_EXIT();
 1b8:	00144300 	call	14430 <OSIntExit>
}
 1bc:	0001883a 	nop
 1c0:	e037883a 	mov	sp,fp
 1c4:	dfc00117 	ldw	ra,4(sp)
 1c8:	df000017 	ldw	fp,0(sp)
 1cc:	dec00204 	addi	sp,sp,8
 1d0:	f800283a 	ret

000001d4 <alt_instruction_exception_entry>:
 * that handler if it has been registered. Absent a handler, it will
 * break break or hang as discussed below.
 */
int 
alt_instruction_exception_entry (alt_u32 exception_pc)
{
 1d4:	defffb04 	addi	sp,sp,-20
 1d8:	dfc00415 	stw	ra,16(sp)
 1dc:	df000315 	stw	fp,12(sp)
 1e0:	df000304 	addi	fp,sp,12
 1e4:	e13fff15 	stw	r4,-4(fp)
 * NIOS2_EXCEPTION_CAUSE_NOT_PRESENT. Your handling routine should
 * check the validity of the cause argument before proceeding.
 */
#ifdef NIOS2_HAS_EXTRA_EXCEPTION_INFO
  /* Get exception cause & "badaddr" */
  NIOS2_READ_EXCEPTION(cause);
 1e8:	000531fa 	rdctl	r2,exception
 1ec:	e0bffd15 	stw	r2,-12(fp)
  cause = ( (cause & NIOS2_EXCEPTION_REG_CAUSE_MASK) >>
 1f0:	e0bffd17 	ldw	r2,-12(fp)
 1f4:	10801f0c 	andi	r2,r2,124
 1f8:	1004d0ba 	srli	r2,r2,2
 1fc:	e0bffd15 	stw	r2,-12(fp)
              NIOS2_EXCEPTION_REG_CAUSE_OFST );

  NIOS2_READ_BADADDR(badaddr);
 200:	0005333a 	rdctl	r2,badaddr
 204:	e0bffe15 	stw	r2,-8(fp)
#else
  cause = NIOS2_EXCEPTION_CAUSE_NOT_PRESENT;
  badaddr = 0;
#endif /* NIOS2_HAS_EXTRA_EXCEPTION_INFO */

  if(alt_instruction_exception_handler) {
 208:	d0a85e17 	ldw	r2,-24200(gp)
 20c:	10000726 	beq	r2,zero,22c <alt_instruction_exception_entry+0x58>
     * Call handler. Its return value indicates whether the exception-causing
     * instruction should be re-issued. The code that called us,
     * alt_eceptions_entry.S, will look at this value and adjust the ea
     * register as necessary
     */
    return alt_instruction_exception_handler(cause, exception_pc, badaddr);
 210:	d0a85e17 	ldw	r2,-24200(gp)
 214:	e0fffd17 	ldw	r3,-12(fp)
 218:	e1bffe17 	ldw	r6,-8(fp)
 21c:	e17fff17 	ldw	r5,-4(fp)
 220:	1809883a 	mov	r4,r3
 224:	103ee83a 	callr	r2
 228:	00000206 	br	234 <alt_instruction_exception_entry+0x60>
   *    (a peripheral which negates its interrupt output before its
   *    interrupt handler has been executed will cause spurious interrupts)
   */
  else {
#ifdef NIOS2_HAS_DEBUG_STUB
    NIOS2_BREAK();
 22c:	003da03a 	break	0
      ;
#endif /* NIOS2_HAS_DEBUG_STUB */
  }

  /* We should not get here. Remove compiler warning. */
  return NIOS2_EXCEPTION_RETURN_REISSUE_INST;
 230:	0005883a 	mov	r2,zero
}
 234:	e037883a 	mov	sp,fp
 238:	dfc00117 	ldw	ra,4(sp)
 23c:	df000017 	ldw	fp,0(sp)
 240:	dec00204 	addi	sp,sp,8
 244:	f800283a 	ret

Disassembly of section .text:

00000248 <_start>:

    /*
     * Now that the caches are initialized, set up the stack pointer and global pointer.
     * The values provided by the linker are assumed to be correctly aligned.
     */
    movhi sp, %hi(__alt_stack_pointer)
     248:	06c10034 	movhi	sp,1024
    ori sp, sp, %lo(__alt_stack_pointer)
     24c:	dec00014 	ori	sp,sp,0
    movhi gp, %hi(_gp)
     250:	068000b4 	movhi	gp,2
    ori gp, gp, %lo(_gp)
     254:	d6a8c914 	ori	gp,gp,41764
 */
#ifndef ALT_SIM_OPTIMIZE
    /* Log that the BSS is about to be cleared. */
    ALT_LOG_PUTS(alt_log_msg_bss)

    movhi r2, %hi(__bss_start)
     258:	008000b4 	movhi	r2,2
    ori r2, r2, %lo(__bss_start)
     25c:	1090fe14 	ori	r2,r2,17400

    movhi r3, %hi(__bss_end)
     260:	00c000b4 	movhi	r3,2
    ori r3, r3, %lo(__bss_end)
     264:	18f5ff14 	ori	r3,r3,55292

    beq r2, r3, 1f
     268:	10c00326 	beq	r2,r3,278 <_start+0x30>

0:
    stw zero, (r2)
     26c:	10000015 	stw	zero,0(r2)
    addi r2, r2, 4
     270:	10800104 	addi	r2,r2,4
    bltu r2, r3, 0b
     274:	10fffd36 	bltu	r2,r3,26c <__alt_mem_VGA_Subsystem_Char_Buf_Subsystem_Onchip_SRAM+0xf700026c>
     * section aren't defined until alt_load() has been called).
     */
    mov   et, zero
#endif

    call alt_load
     278:	001323c0 	call	1323c <alt_load>

    /* Log that alt_main is about to be called. */
    ALT_LOG_PUTS(alt_log_msg_alt_main)

    /* Call the C entry point. It should never return. */
    call alt_main
     27c:	00133d00 	call	133d0 <alt_main>

00000280 <alt_after_alt_main>:

    /* Wait in infinite loop in case alt_main does return. */
alt_after_alt_main:
    br alt_after_alt_main
     280:	003fff06 	br	280 <__alt_mem_VGA_Subsystem_Char_Buf_Subsystem_Onchip_SRAM+0xf7000280>

00000284 <_ZN19ControllerInterfaceC1Ev>:
 *      Author: natha
 */

#include "ControllerInterface.h"

ControllerInterface::ControllerInterface(){
     284:	defffe04 	addi	sp,sp,-8
     288:	df000115 	stw	fp,4(sp)
     28c:	df000104 	addi	fp,sp,4
     290:	e13fff15 	stw	r4,-4(fp)
     294:	008000b4 	movhi	r2,2
     298:	10bc3a04 	addi	r2,r2,-3864
     29c:	e0ffff17 	ldw	r3,-4(fp)
     2a0:	18800015 	stw	r2,0(r3)
     2a4:	e0bfff17 	ldw	r2,-4(fp)
     2a8:	10000115 	stw	zero,4(r2)

};
     2ac:	0001883a 	nop
     2b0:	e037883a 	mov	sp,fp
     2b4:	df000017 	ldw	fp,0(sp)
     2b8:	dec00104 	addi	sp,sp,4
     2bc:	f800283a 	ret

000002c0 <_ZN19ControllerInterface15getActiveButtonEv>:

button_t ControllerInterface::getActiveButton(){
     2c0:	defffd04 	addi	sp,sp,-12
     2c4:	df000215 	stw	fp,8(sp)
     2c8:	df000204 	addi	fp,sp,8
     2cc:	e13fff15 	stw	r4,-4(fp)
	button_t temp = this->activeButton;
     2d0:	e0bfff17 	ldw	r2,-4(fp)
     2d4:	10800117 	ldw	r2,4(r2)
     2d8:	e0bffe15 	stw	r2,-8(fp)
	this->activeButton = BUTTON_NO_BUTTON;
     2dc:	e0bfff17 	ldw	r2,-4(fp)
     2e0:	10000115 	stw	zero,4(r2)
	return temp;
     2e4:	e0bffe17 	ldw	r2,-8(fp)
};
     2e8:	e037883a 	mov	sp,fp
     2ec:	df000017 	ldw	fp,0(sp)
     2f0:	dec00104 	addi	sp,sp,4
     2f4:	f800283a 	ret

000002f8 <_ZN6EntityC1Eii>:
 *      Author: natha
 */

#include "Entity.h"

Entity::Entity(int x, int y) : x(x), y(y) {
     2f8:	defffc04 	addi	sp,sp,-16
     2fc:	df000315 	stw	fp,12(sp)
     300:	df000304 	addi	fp,sp,12
     304:	e13ffd15 	stw	r4,-12(fp)
     308:	e17ffe15 	stw	r5,-8(fp)
     30c:	e1bfff15 	stw	r6,-4(fp)
     310:	008000b4 	movhi	r2,2
     314:	10bc4304 	addi	r2,r2,-3828
     318:	e0fffd17 	ldw	r3,-12(fp)
     31c:	18800015 	stw	r2,0(r3)
     320:	e0bffd17 	ldw	r2,-12(fp)
     324:	e0fffe17 	ldw	r3,-8(fp)
     328:	10c00115 	stw	r3,4(r2)
     32c:	e0bffd17 	ldw	r2,-12(fp)
     330:	e0ffff17 	ldw	r3,-4(fp)
     334:	10c00215 	stw	r3,8(r2)
     338:	e0bffd17 	ldw	r2,-12(fp)
     33c:	00c00044 	movi	r3,1
     340:	10c00805 	stb	r3,32(r2)
     344:	e0bffd17 	ldw	r2,-12(fp)
     348:	00c00104 	movi	r3,4
     34c:	10c00915 	stw	r3,36(r2)

};
     350:	0001883a 	nop
     354:	e037883a 	mov	sp,fp
     358:	df000017 	ldw	fp,0(sp)
     35c:	dec00104 	addi	sp,sp,4
     360:	f800283a 	ret

00000364 <_ZN6Entity6updateEi>:

void Entity::update(int elapsedTime){
     364:	defffc04 	addi	sp,sp,-16
     368:	dfc00315 	stw	ra,12(sp)
     36c:	df000215 	stw	fp,8(sp)
     370:	df000204 	addi	fp,sp,8
     374:	e13ffe15 	stw	r4,-8(fp)
     378:	e17fff15 	stw	r5,-4(fp)
	this->prev_dir = this->dir;
     37c:	e0bffe17 	ldw	r2,-8(fp)
     380:	10c00917 	ldw	r3,36(r2)
     384:	e0bffe17 	ldw	r2,-8(fp)
     388:	10c00a15 	stw	r3,40(r2)
	this->prev_x = this->x;
     38c:	e0bffe17 	ldw	r2,-8(fp)
     390:	10c00117 	ldw	r3,4(r2)
     394:	e0bffe17 	ldw	r2,-8(fp)
     398:	10c00315 	stw	r3,12(r2)
	this->prev_y = this->y;
     39c:	e0bffe17 	ldw	r2,-8(fp)
     3a0:	10c00217 	ldw	r3,8(r2)
     3a4:	e0bffe17 	ldw	r2,-8(fp)
     3a8:	10c00415 	stw	r3,16(r2)
	this->_update(elapsedTime);
     3ac:	e0bffe17 	ldw	r2,-8(fp)
     3b0:	10800017 	ldw	r2,0(r2)
     3b4:	10800104 	addi	r2,r2,4
     3b8:	10800017 	ldw	r2,0(r2)
     3bc:	e17fff17 	ldw	r5,-4(fp)
     3c0:	e13ffe17 	ldw	r4,-8(fp)
     3c4:	103ee83a 	callr	r2
};
     3c8:	0001883a 	nop
     3cc:	e037883a 	mov	sp,fp
     3d0:	dfc00117 	ldw	ra,4(sp)
     3d4:	df000017 	ldw	fp,0(sp)
     3d8:	dec00204 	addi	sp,sp,8
     3dc:	f800283a 	ret

000003e0 <_ZN6Entity4drawEP14VideoInterface>:

void Entity::draw(VideoInterface* vi){
     3e0:	defffc04 	addi	sp,sp,-16
     3e4:	dfc00315 	stw	ra,12(sp)
     3e8:	df000215 	stw	fp,8(sp)
     3ec:	df000204 	addi	fp,sp,8
     3f0:	e13ffe15 	stw	r4,-8(fp)
     3f4:	e17fff15 	stw	r5,-4(fp)
	if(this->redraw){
     3f8:	e0bffe17 	ldw	r2,-8(fp)
     3fc:	10800803 	ldbu	r2,32(r2)
     400:	10803fcc 	andi	r2,r2,255
     404:	10000826 	beq	r2,zero,428 <_ZN6Entity4drawEP14VideoInterface+0x48>
		this->_draw(vi);
     408:	e0bffe17 	ldw	r2,-8(fp)
     40c:	10800017 	ldw	r2,0(r2)
     410:	10800017 	ldw	r2,0(r2)
     414:	e17fff17 	ldw	r5,-4(fp)
     418:	e13ffe17 	ldw	r4,-8(fp)
     41c:	103ee83a 	callr	r2
		this->redraw = 0;
     420:	e0bffe17 	ldw	r2,-8(fp)
     424:	10000805 	stb	zero,32(r2)
	}
}
     428:	0001883a 	nop
     42c:	e037883a 	mov	sp,fp
     430:	dfc00117 	ldw	ra,4(sp)
     434:	df000017 	ldw	fp,0(sp)
     438:	dec00204 	addi	sp,sp,8
     43c:	f800283a 	ret

00000440 <_ZN6Entity6setDirE5E_DIR>:

void Entity::setDir(e_dir_t dir){
     440:	defffd04 	addi	sp,sp,-12
     444:	df000215 	stw	fp,8(sp)
     448:	df000204 	addi	fp,sp,8
     44c:	e13ffe15 	stw	r4,-8(fp)
     450:	e17fff15 	stw	r5,-4(fp)
	this->dir = dir;
     454:	e0bffe17 	ldw	r2,-8(fp)
     458:	e0ffff17 	ldw	r3,-4(fp)
     45c:	10c00915 	stw	r3,36(r2)
	this->redraw = 1;
     460:	e0bffe17 	ldw	r2,-8(fp)
     464:	00c00044 	movi	r3,1
     468:	10c00805 	stb	r3,32(r2)
};
     46c:	0001883a 	nop
     470:	e037883a 	mov	sp,fp
     474:	df000017 	ldw	fp,0(sp)
     478:	dec00104 	addi	sp,sp,4
     47c:	f800283a 	ret

00000480 <_ZN6Entity6setPosEii>:

void Entity::setPos(int x, int y){
     480:	defffc04 	addi	sp,sp,-16
     484:	df000315 	stw	fp,12(sp)
     488:	df000304 	addi	fp,sp,12
     48c:	e13ffd15 	stw	r4,-12(fp)
     490:	e17ffe15 	stw	r5,-8(fp)
     494:	e1bfff15 	stw	r6,-4(fp)
	this->x = x;
     498:	e0bffd17 	ldw	r2,-12(fp)
     49c:	e0fffe17 	ldw	r3,-8(fp)
     4a0:	10c00115 	stw	r3,4(r2)
	this->y = y;
     4a4:	e0bffd17 	ldw	r2,-12(fp)
     4a8:	e0ffff17 	ldw	r3,-4(fp)
     4ac:	10c00215 	stw	r3,8(r2)
	this->redraw = 1;
     4b0:	e0bffd17 	ldw	r2,-12(fp)
     4b4:	00c00044 	movi	r3,1
     4b8:	10c00805 	stb	r3,32(r2)
};
     4bc:	0001883a 	nop
     4c0:	e037883a 	mov	sp,fp
     4c4:	df000017 	ldw	fp,0(sp)
     4c8:	dec00104 	addi	sp,sp,4
     4cc:	f800283a 	ret

000004d0 <_ZN6Entity11getVelocityEv>:

int Entity::getVelocity(){
     4d0:	defffe04 	addi	sp,sp,-8
     4d4:	df000115 	stw	fp,4(sp)
     4d8:	df000104 	addi	fp,sp,4
     4dc:	e13fff15 	stw	r4,-4(fp)
	return velocity;
     4e0:	e0bfff17 	ldw	r2,-4(fp)
     4e4:	10800717 	ldw	r2,28(r2)
};
     4e8:	e037883a 	mov	sp,fp
     4ec:	df000017 	ldw	fp,0(sp)
     4f0:	dec00104 	addi	sp,sp,4
     4f4:	f800283a 	ret

000004f8 <_ZN6Entity4getXEv>:

int Entity::getX(){
     4f8:	defffe04 	addi	sp,sp,-8
     4fc:	df000115 	stw	fp,4(sp)
     500:	df000104 	addi	fp,sp,4
     504:	e13fff15 	stw	r4,-4(fp)
	return x;
     508:	e0bfff17 	ldw	r2,-4(fp)
     50c:	10800117 	ldw	r2,4(r2)
};
     510:	e037883a 	mov	sp,fp
     514:	df000017 	ldw	fp,0(sp)
     518:	dec00104 	addi	sp,sp,4
     51c:	f800283a 	ret

00000520 <_ZN6Entity4getYEv>:

int Entity::getY(){
     520:	defffe04 	addi	sp,sp,-8
     524:	df000115 	stw	fp,4(sp)
     528:	df000104 	addi	fp,sp,4
     52c:	e13fff15 	stw	r4,-4(fp)
	return y;
     530:	e0bfff17 	ldw	r2,-4(fp)
     534:	10800217 	ldw	r2,8(r2)
};
     538:	e037883a 	mov	sp,fp
     53c:	df000017 	ldw	fp,0(sp)
     540:	dec00104 	addi	sp,sp,4
     544:	f800283a 	ret

00000548 <_ZN6Entity6getDirEv>:

e_dir_t Entity::getDir(){
     548:	defffe04 	addi	sp,sp,-8
     54c:	df000115 	stw	fp,4(sp)
     550:	df000104 	addi	fp,sp,4
     554:	e13fff15 	stw	r4,-4(fp)
	return dir;
     558:	e0bfff17 	ldw	r2,-4(fp)
     55c:	10800917 	ldw	r2,36(r2)
};
     560:	e037883a 	mov	sp,fp
     564:	df000017 	ldw	fp,0(sp)
     568:	dec00104 	addi	sp,sp,4
     56c:	f800283a 	ret

00000570 <_ZN4GameC1EP19ControllerInterfaceP14VideoInterface>:
 *      Author: natha
 */

#include "Game.h"

Game::Game(ControllerInterface* control, VideoInterface* video) : ci(control), vi(video){
     570:	defffb04 	addi	sp,sp,-20
     574:	dfc00415 	stw	ra,16(sp)
     578:	df000315 	stw	fp,12(sp)
     57c:	df000304 	addi	fp,sp,12
     580:	e13ffd15 	stw	r4,-12(fp)
     584:	e17ffe15 	stw	r5,-8(fp)
     588:	e1bfff15 	stw	r6,-4(fp)
     58c:	e0bffd17 	ldw	r2,-12(fp)
     590:	e0fffe17 	ldw	r3,-8(fp)
     594:	10c00015 	stw	r3,0(r2)
     598:	e0bffd17 	ldw	r2,-12(fp)
     59c:	e0ffff17 	ldw	r3,-4(fp)
     5a0:	10c00115 	stw	r3,4(r2)
     5a4:	e0bffd17 	ldw	r2,-12(fp)
     5a8:	10800204 	addi	r2,r2,8
     5ac:	01800204 	movi	r6,8
     5b0:	01400204 	movi	r5,8
     5b4:	1009883a 	mov	r4,r2
     5b8:	000213c0 	call	213c <_ZN6PacManC1Eii>
     5bc:	e0bffd17 	ldw	r2,-12(fp)
     5c0:	10007c15 	stw	zero,496(r2)
     5c4:	e0bffd17 	ldw	r2,-12(fp)
     5c8:	10007d05 	stb	zero,500(r2)
     5cc:	e0bffd17 	ldw	r2,-12(fp)
     5d0:	10007e15 	stw	zero,504(r2)
     5d4:	e0fffd17 	ldw	r3,-12(fp)
     5d8:	008000b4 	movhi	r2,2
     5dc:	10bc4504 	addi	r2,r2,-3820
     5e0:	18c07f04 	addi	r3,r3,508
     5e4:	1009883a 	mov	r4,r2
     5e8:	00823704 	movi	r2,2268
     5ec:	100d883a 	mov	r6,r2
     5f0:	200b883a 	mov	r5,r4
     5f4:	1809883a 	mov	r4,r3
     5f8:	00073640 	call	7364 <memcpy>
	vi->clear(0);
     5fc:	e0bffd17 	ldw	r2,-12(fp)
     600:	10800117 	ldw	r2,4(r2)
     604:	000b883a 	mov	r5,zero
     608:	1009883a 	mov	r4,r2
     60c:	00029180 	call	2918 <_ZN14VideoInterface5clearEt>

	setInSquare(&player, 10, 15);
     610:	e0bffd17 	ldw	r2,-12(fp)
     614:	10800204 	addi	r2,r2,8
     618:	01c003c4 	movi	r7,15
     61c:	01800284 	movi	r6,10
     620:	100b883a 	mov	r5,r2
     624:	e13ffd17 	ldw	r4,-12(fp)
     628:	00008200 	call	820 <_ZN4Game11setInSquareEP6Entityii>
};
     62c:	0001883a 	nop
     630:	e037883a 	mov	sp,fp
     634:	dfc00117 	ldw	ra,4(sp)
     638:	df000017 	ldw	fp,0(sp)
     63c:	dec00204 	addi	sp,sp,8
     640:	f800283a 	ret

00000644 <_ZN4Game6updateEi>:

void Game::update(int elapsedTime){
     644:	defffa04 	addi	sp,sp,-24
     648:	dfc00515 	stw	ra,20(sp)
     64c:	df000415 	stw	fp,16(sp)
     650:	df000404 	addi	fp,sp,16
     654:	e13ffe15 	stw	r4,-8(fp)
     658:	e17fff15 	stw	r5,-4(fp)
	if(state == LEVEL_RUN){
     65c:	e0bffe17 	ldw	r2,-8(fp)
     660:	10807c17 	ldw	r2,496(r2)
     664:	10800058 	cmpnei	r2,r2,1
     668:	1000671e 	bne	r2,zero,808 <_ZN4Game6updateEi+0x1c4>
		switch(ci->getActiveButton()){
     66c:	e0bffe17 	ldw	r2,-8(fp)
     670:	10800017 	ldw	r2,0(r2)
     674:	1009883a 	mov	r4,r2
     678:	00002c00 	call	2c0 <_ZN19ControllerInterface15getActiveButtonEv>
     67c:	10c000a0 	cmpeqi	r3,r2,2
     680:	1800101e 	bne	r3,zero,6c4 <_ZN4Game6updateEi+0x80>
     684:	10c000c8 	cmpgei	r3,r2,3
     688:	1800031e 	bne	r3,zero,698 <_ZN4Game6updateEi+0x54>
     68c:	10800060 	cmpeqi	r2,r2,1
     690:	1000061e 	bne	r2,zero,6ac <_ZN4Game6updateEi+0x68>
			case BUTTON_UP: player.setDir(DIR_UP); break;
			case BUTTON_DOWN: player.setDir(DIR_DOWN); break;
			case BUTTON_LEFT: player.setDir(DIR_LEFT); break;
			case BUTTON_RIGHT: player.setDir(DIR_RIGHT); break;
			default: break;
     694:	00001d06 	br	70c <_ZN4Game6updateEi+0xc8>
	setInSquare(&player, 10, 15);
};

void Game::update(int elapsedTime){
	if(state == LEVEL_RUN){
		switch(ci->getActiveButton()){
     698:	10c000e0 	cmpeqi	r3,r2,3
     69c:	18000f1e 	bne	r3,zero,6dc <_ZN4Game6updateEi+0x98>
     6a0:	10800120 	cmpeqi	r2,r2,4
     6a4:	1000131e 	bne	r2,zero,6f4 <_ZN4Game6updateEi+0xb0>
			case BUTTON_UP: player.setDir(DIR_UP); break;
			case BUTTON_DOWN: player.setDir(DIR_DOWN); break;
			case BUTTON_LEFT: player.setDir(DIR_LEFT); break;
			case BUTTON_RIGHT: player.setDir(DIR_RIGHT); break;
			default: break;
     6a8:	00001806 	br	70c <_ZN4Game6updateEi+0xc8>
};

void Game::update(int elapsedTime){
	if(state == LEVEL_RUN){
		switch(ci->getActiveButton()){
			case BUTTON_UP: player.setDir(DIR_UP); break;
     6ac:	e0bffe17 	ldw	r2,-8(fp)
     6b0:	10800204 	addi	r2,r2,8
     6b4:	000b883a 	mov	r5,zero
     6b8:	1009883a 	mov	r4,r2
     6bc:	00004400 	call	440 <_ZN6Entity6setDirE5E_DIR>
     6c0:	00001206 	br	70c <_ZN4Game6updateEi+0xc8>
			case BUTTON_DOWN: player.setDir(DIR_DOWN); break;
     6c4:	e0bffe17 	ldw	r2,-8(fp)
     6c8:	10800204 	addi	r2,r2,8
     6cc:	01400044 	movi	r5,1
     6d0:	1009883a 	mov	r4,r2
     6d4:	00004400 	call	440 <_ZN6Entity6setDirE5E_DIR>
     6d8:	00000c06 	br	70c <_ZN4Game6updateEi+0xc8>
			case BUTTON_LEFT: player.setDir(DIR_LEFT); break;
     6dc:	e0bffe17 	ldw	r2,-8(fp)
     6e0:	10800204 	addi	r2,r2,8
     6e4:	01400084 	movi	r5,2
     6e8:	1009883a 	mov	r4,r2
     6ec:	00004400 	call	440 <_ZN6Entity6setDirE5E_DIR>
     6f0:	00000606 	br	70c <_ZN4Game6updateEi+0xc8>
			case BUTTON_RIGHT: player.setDir(DIR_RIGHT); break;
     6f4:	e0bffe17 	ldw	r2,-8(fp)
     6f8:	10800204 	addi	r2,r2,8
     6fc:	014000c4 	movi	r5,3
     700:	1009883a 	mov	r4,r2
     704:	00004400 	call	440 <_ZN6Entity6setDirE5E_DIR>
     708:	0001883a 	nop
			default: break;
		}
		updateMovement(&player, elapsedTime);
     70c:	e0bffe17 	ldw	r2,-8(fp)
     710:	10800204 	addi	r2,r2,8
     714:	e1bfff17 	ldw	r6,-4(fp)
     718:	100b883a 	mov	r5,r2
     71c:	e13ffe17 	ldw	r4,-8(fp)
     720:	0000b480 	call	b48 <_ZN4Game14updateMovementEP6Entityi>

		int xs = player.getX() / 8.0;
     724:	e0bffe17 	ldw	r2,-8(fp)
     728:	10800204 	addi	r2,r2,8
     72c:	1009883a 	mov	r4,r2
     730:	00004f80 	call	4f8 <_ZN6Entity4getXEv>
     734:	1009883a 	mov	r4,r2
     738:	00059580 	call	5958 <__floatsisf>
     73c:	1007883a 	mov	r3,r2
     740:	00904034 	movhi	r2,16640
     744:	1885fff2 	custom	255,r2,r3,r2
     748:	1009883a 	mov	r4,r2
     74c:	00058e80 	call	58e8 <__fixsfsi>
     750:	e0bffc15 	stw	r2,-16(fp)
		int ys = player.getY() / 8.0;
     754:	e0bffe17 	ldw	r2,-8(fp)
     758:	10800204 	addi	r2,r2,8
     75c:	1009883a 	mov	r4,r2
     760:	00005200 	call	520 <_ZN6Entity4getYEv>
     764:	1009883a 	mov	r4,r2
     768:	00059580 	call	5958 <__floatsisf>
     76c:	1007883a 	mov	r3,r2
     770:	00904034 	movhi	r2,16640
     774:	1885fff2 	custom	255,r2,r3,r2
     778:	1009883a 	mov	r4,r2
     77c:	00058e80 	call	58e8 <__fixsfsi>
     780:	e0bffd15 	stw	r2,-12(fp)
		if(map[ys][xs] == pd){
     784:	e0fffe17 	ldw	r3,-8(fp)
     788:	e0bffd17 	ldw	r2,-12(fp)
     78c:	11000564 	muli	r4,r2,21
     790:	e0bffc17 	ldw	r2,-16(fp)
     794:	2085883a 	add	r2,r4,r2
     798:	10801fc4 	addi	r2,r2,127
     79c:	1085883a 	add	r2,r2,r2
     7a0:	1085883a 	add	r2,r2,r2
     7a4:	1885883a 	add	r2,r3,r2
     7a8:	10800017 	ldw	r2,0(r2)
     7ac:	10800058 	cmpnei	r2,r2,1
     7b0:	1000151e 	bne	r2,zero,808 <_ZN4Game6updateEi+0x1c4>
			points += 100;
     7b4:	e0bffe17 	ldw	r2,-8(fp)
     7b8:	10807e17 	ldw	r2,504(r2)
     7bc:	10c01904 	addi	r3,r2,100
     7c0:	e0bffe17 	ldw	r2,-8(fp)
     7c4:	10c07e15 	stw	r3,504(r2)
			printf("Points: %d \n", points);
     7c8:	e0bffe17 	ldw	r2,-8(fp)
     7cc:	10807e17 	ldw	r2,504(r2)
     7d0:	100b883a 	mov	r5,r2
     7d4:	010000b4 	movhi	r4,2
     7d8:	213e7c04 	addi	r4,r4,-1552
     7dc:	00076040 	call	7604 <printf>
			map[ys][xs] = em;
     7e0:	e0fffe17 	ldw	r3,-8(fp)
     7e4:	e0bffd17 	ldw	r2,-12(fp)
     7e8:	11000564 	muli	r4,r2,21
     7ec:	e0bffc17 	ldw	r2,-16(fp)
     7f0:	2085883a 	add	r2,r4,r2
     7f4:	10801fc4 	addi	r2,r2,127
     7f8:	1085883a 	add	r2,r2,r2
     7fc:	1085883a 	add	r2,r2,r2
     800:	1885883a 	add	r2,r3,r2
     804:	10000015 	stw	zero,0(r2)
		}
	}
};
     808:	0001883a 	nop
     80c:	e037883a 	mov	sp,fp
     810:	dfc00117 	ldw	ra,4(sp)
     814:	df000017 	ldw	fp,0(sp)
     818:	dec00204 	addi	sp,sp,8
     81c:	f800283a 	ret

00000820 <_ZN4Game11setInSquareEP6Entityii>:

void Game::setInSquare(Entity* en, int xs, int ys){
     820:	defffa04 	addi	sp,sp,-24
     824:	dfc00515 	stw	ra,20(sp)
     828:	df000415 	stw	fp,16(sp)
     82c:	df000404 	addi	fp,sp,16
     830:	e13ffc15 	stw	r4,-16(fp)
     834:	e17ffd15 	stw	r5,-12(fp)
     838:	e1bffe15 	stw	r6,-8(fp)
     83c:	e1ffff15 	stw	r7,-4(fp)
	en->setPos(xs*8, ys*8);
     840:	e0bffe17 	ldw	r2,-8(fp)
     844:	100690fa 	slli	r3,r2,3
     848:	e0bfff17 	ldw	r2,-4(fp)
     84c:	100490fa 	slli	r2,r2,3
     850:	100d883a 	mov	r6,r2
     854:	180b883a 	mov	r5,r3
     858:	e13ffd17 	ldw	r4,-12(fp)
     85c:	00004800 	call	480 <_ZN6Entity6setPosEii>
};
     860:	0001883a 	nop
     864:	e037883a 	mov	sp,fp
     868:	dfc00117 	ldw	ra,4(sp)
     86c:	df000017 	ldw	fp,0(sp)
     870:	dec00204 	addi	sp,sp,8
     874:	f800283a 	ret

00000878 <_ZN4Game15distanceToWallsEP6EntityPiS2_S2_S2_>:

void Game::distanceToWalls(Entity* en, int* up, int* down, int* left, int* right){
     878:	defff004 	addi	sp,sp,-64
     87c:	dfc00f15 	stw	ra,60(sp)
     880:	df000e15 	stw	fp,56(sp)
     884:	df000e04 	addi	fp,sp,56
     888:	e13ffc15 	stw	r4,-16(fp)
     88c:	e17ffd15 	stw	r5,-12(fp)
     890:	e1bffe15 	stw	r6,-8(fp)
     894:	e1ffff15 	stw	r7,-4(fp)
	int x = en->getX();
     898:	e13ffd17 	ldw	r4,-12(fp)
     89c:	00004f80 	call	4f8 <_ZN6Entity4getXEv>
     8a0:	e0bff615 	stw	r2,-40(fp)
	int y = en->getY();
     8a4:	e13ffd17 	ldw	r4,-12(fp)
     8a8:	00005200 	call	520 <_ZN6Entity4getYEv>
     8ac:	e0bff715 	stw	r2,-36(fp)
	int xSq = en->getX() / 8.0;
     8b0:	e13ffd17 	ldw	r4,-12(fp)
     8b4:	00004f80 	call	4f8 <_ZN6Entity4getXEv>
     8b8:	1009883a 	mov	r4,r2
     8bc:	00059580 	call	5958 <__floatsisf>
     8c0:	1007883a 	mov	r3,r2
     8c4:	00904034 	movhi	r2,16640
     8c8:	1885fff2 	custom	255,r2,r3,r2
     8cc:	1009883a 	mov	r4,r2
     8d0:	00058e80 	call	58e8 <__fixsfsi>
     8d4:	e0bff815 	stw	r2,-32(fp)
	int ySq = en->getY() / 8.0;
     8d8:	e13ffd17 	ldw	r4,-12(fp)
     8dc:	00005200 	call	520 <_ZN6Entity4getYEv>
     8e0:	1009883a 	mov	r4,r2
     8e4:	00059580 	call	5958 <__floatsisf>
     8e8:	1007883a 	mov	r3,r2
     8ec:	00904034 	movhi	r2,16640
     8f0:	1885fff2 	custom	255,r2,r3,r2
     8f4:	1009883a 	mov	r4,r2
     8f8:	00058e80 	call	58e8 <__fixsfsi>
     8fc:	e0bff915 	stw	r2,-28(fp)

	int upSq = 0, downSq = 0, leftSq = 0, rightSq = 0;
     900:	e03ff215 	stw	zero,-56(fp)
     904:	e03ff315 	stw	zero,-52(fp)
     908:	e03ff415 	stw	zero,-48(fp)
     90c:	e03ff515 	stw	zero,-44(fp)
	if(x % 8 == 0){
     910:	e0bff617 	ldw	r2,-40(fp)
     914:	108001cc 	andi	r2,r2,7
     918:	1000301e 	bne	r2,zero,9dc <_ZN4Game15distanceToWallsEP6EntityPiS2_S2_S2_+0x164>
		while(walkable(map[ySq - upSq - 1][xSq])) 	 upSq++;
     91c:	e0fff917 	ldw	r3,-28(fp)
     920:	e0bff217 	ldw	r2,-56(fp)
     924:	1885c83a 	sub	r2,r3,r2
     928:	10bfffc4 	addi	r2,r2,-1
     92c:	e0fffc17 	ldw	r3,-16(fp)
     930:	11000564 	muli	r4,r2,21
     934:	e0bff817 	ldw	r2,-32(fp)
     938:	2085883a 	add	r2,r4,r2
     93c:	10801fc4 	addi	r2,r2,127
     940:	1085883a 	add	r2,r2,r2
     944:	1085883a 	add	r2,r2,r2
     948:	1885883a 	add	r2,r3,r2
     94c:	10800017 	ldw	r2,0(r2)
     950:	100b883a 	mov	r5,r2
     954:	e13ffc17 	ldw	r4,-16(fp)
     958:	0000d540 	call	d54 <_ZN4Game8walkableE10map_item_t>
     95c:	10803fcc 	andi	r2,r2,255
     960:	1004c03a 	cmpne	r2,r2,zero
     964:	10803fcc 	andi	r2,r2,255
     968:	10000426 	beq	r2,zero,97c <_ZN4Game15distanceToWallsEP6EntityPiS2_S2_S2_+0x104>
     96c:	e0bff217 	ldw	r2,-56(fp)
     970:	10800044 	addi	r2,r2,1
     974:	e0bff215 	stw	r2,-56(fp)
     978:	003fe806 	br	91c <__alt_mem_VGA_Subsystem_Char_Buf_Subsystem_Onchip_SRAM+0xf700091c>
		while(walkable(map[ySq + downSq + 1][xSq]))  downSq++;
     97c:	e0fff917 	ldw	r3,-28(fp)
     980:	e0bff317 	ldw	r2,-52(fp)
     984:	1885883a 	add	r2,r3,r2
     988:	10800044 	addi	r2,r2,1
     98c:	e0fffc17 	ldw	r3,-16(fp)
     990:	11000564 	muli	r4,r2,21
     994:	e0bff817 	ldw	r2,-32(fp)
     998:	2085883a 	add	r2,r4,r2
     99c:	10801fc4 	addi	r2,r2,127
     9a0:	1085883a 	add	r2,r2,r2
     9a4:	1085883a 	add	r2,r2,r2
     9a8:	1885883a 	add	r2,r3,r2
     9ac:	10800017 	ldw	r2,0(r2)
     9b0:	100b883a 	mov	r5,r2
     9b4:	e13ffc17 	ldw	r4,-16(fp)
     9b8:	0000d540 	call	d54 <_ZN4Game8walkableE10map_item_t>
     9bc:	10803fcc 	andi	r2,r2,255
     9c0:	1004c03a 	cmpne	r2,r2,zero
     9c4:	10803fcc 	andi	r2,r2,255
     9c8:	10000426 	beq	r2,zero,9dc <_ZN4Game15distanceToWallsEP6EntityPiS2_S2_S2_+0x164>
     9cc:	e0bff317 	ldw	r2,-52(fp)
     9d0:	10800044 	addi	r2,r2,1
     9d4:	e0bff315 	stw	r2,-52(fp)
     9d8:	003fe806 	br	97c <__alt_mem_VGA_Subsystem_Char_Buf_Subsystem_Onchip_SRAM+0xf700097c>
	}
	if(y % 8 == 0){
     9dc:	e0bff717 	ldw	r2,-36(fp)
     9e0:	108001cc 	andi	r2,r2,7
     9e4:	1000301e 	bne	r2,zero,aa8 <_ZN4Game15distanceToWallsEP6EntityPiS2_S2_S2_+0x230>
		while(walkable(map[ySq][xSq - leftSq - 1]))  leftSq++;
     9e8:	e0fff817 	ldw	r3,-32(fp)
     9ec:	e0bff417 	ldw	r2,-48(fp)
     9f0:	1885c83a 	sub	r2,r3,r2
     9f4:	10bfffc4 	addi	r2,r2,-1
     9f8:	e0fffc17 	ldw	r3,-16(fp)
     9fc:	e13ff917 	ldw	r4,-28(fp)
     a00:	21000564 	muli	r4,r4,21
     a04:	2085883a 	add	r2,r4,r2
     a08:	10801fc4 	addi	r2,r2,127
     a0c:	1085883a 	add	r2,r2,r2
     a10:	1085883a 	add	r2,r2,r2
     a14:	1885883a 	add	r2,r3,r2
     a18:	10800017 	ldw	r2,0(r2)
     a1c:	100b883a 	mov	r5,r2
     a20:	e13ffc17 	ldw	r4,-16(fp)
     a24:	0000d540 	call	d54 <_ZN4Game8walkableE10map_item_t>
     a28:	10803fcc 	andi	r2,r2,255
     a2c:	1004c03a 	cmpne	r2,r2,zero
     a30:	10803fcc 	andi	r2,r2,255
     a34:	10000426 	beq	r2,zero,a48 <_ZN4Game15distanceToWallsEP6EntityPiS2_S2_S2_+0x1d0>
     a38:	e0bff417 	ldw	r2,-48(fp)
     a3c:	10800044 	addi	r2,r2,1
     a40:	e0bff415 	stw	r2,-48(fp)
     a44:	003fe806 	br	9e8 <__alt_mem_VGA_Subsystem_Char_Buf_Subsystem_Onchip_SRAM+0xf70009e8>
		while(walkable(map[ySq][xSq + rightSq + 1])) rightSq++;
     a48:	e0fff817 	ldw	r3,-32(fp)
     a4c:	e0bff517 	ldw	r2,-44(fp)
     a50:	1885883a 	add	r2,r3,r2
     a54:	10800044 	addi	r2,r2,1
     a58:	e0fffc17 	ldw	r3,-16(fp)
     a5c:	e13ff917 	ldw	r4,-28(fp)
     a60:	21000564 	muli	r4,r4,21
     a64:	2085883a 	add	r2,r4,r2
     a68:	10801fc4 	addi	r2,r2,127
     a6c:	1085883a 	add	r2,r2,r2
     a70:	1085883a 	add	r2,r2,r2
     a74:	1885883a 	add	r2,r3,r2
     a78:	10800017 	ldw	r2,0(r2)
     a7c:	100b883a 	mov	r5,r2
     a80:	e13ffc17 	ldw	r4,-16(fp)
     a84:	0000d540 	call	d54 <_ZN4Game8walkableE10map_item_t>
     a88:	10803fcc 	andi	r2,r2,255
     a8c:	1004c03a 	cmpne	r2,r2,zero
     a90:	10803fcc 	andi	r2,r2,255
     a94:	10000426 	beq	r2,zero,aa8 <_ZN4Game15distanceToWallsEP6EntityPiS2_S2_S2_+0x230>
     a98:	e0bff517 	ldw	r2,-44(fp)
     a9c:	10800044 	addi	r2,r2,1
     aa0:	e0bff515 	stw	r2,-44(fp)
     aa4:	003fe806 	br	a48 <__alt_mem_VGA_Subsystem_Char_Buf_Subsystem_Onchip_SRAM+0xf7000a48>
	}

	int xPixel = (xSq * 8) - x;
     aa8:	e0bff817 	ldw	r2,-32(fp)
     aac:	100690fa 	slli	r3,r2,3
     ab0:	e0bff617 	ldw	r2,-40(fp)
     ab4:	1885c83a 	sub	r2,r3,r2
     ab8:	e0bffa15 	stw	r2,-24(fp)
	int yPixel = (ySq * 8) - y;
     abc:	e0bff917 	ldw	r2,-28(fp)
     ac0:	100690fa 	slli	r3,r2,3
     ac4:	e0bff717 	ldw	r2,-36(fp)
     ac8:	1885c83a 	sub	r2,r3,r2
     acc:	e0bffb15 	stw	r2,-20(fp)

	*up 	= (upSq * 8) - yPixel;
     ad0:	e0bff217 	ldw	r2,-56(fp)
     ad4:	100690fa 	slli	r3,r2,3
     ad8:	e0bffb17 	ldw	r2,-20(fp)
     adc:	1887c83a 	sub	r3,r3,r2
     ae0:	e0bffe17 	ldw	r2,-8(fp)
     ae4:	10c00015 	stw	r3,0(r2)
	*down 	= (downSq * 8) + yPixel;
     ae8:	e0bff317 	ldw	r2,-52(fp)
     aec:	100690fa 	slli	r3,r2,3
     af0:	e0bffb17 	ldw	r2,-20(fp)
     af4:	1887883a 	add	r3,r3,r2
     af8:	e0bfff17 	ldw	r2,-4(fp)
     afc:	10c00015 	stw	r3,0(r2)
	*left 	= (leftSq * 8) - xPixel;
     b00:	e0bff417 	ldw	r2,-48(fp)
     b04:	100690fa 	slli	r3,r2,3
     b08:	e0bffa17 	ldw	r2,-24(fp)
     b0c:	1887c83a 	sub	r3,r3,r2
     b10:	e0800217 	ldw	r2,8(fp)
     b14:	10c00015 	stw	r3,0(r2)
	*right 	= (rightSq * 8) + xPixel;
     b18:	e0bff517 	ldw	r2,-44(fp)
     b1c:	100690fa 	slli	r3,r2,3
     b20:	e0bffa17 	ldw	r2,-24(fp)
     b24:	1887883a 	add	r3,r3,r2
     b28:	e0800317 	ldw	r2,12(fp)
     b2c:	10c00015 	stw	r3,0(r2)
};
     b30:	0001883a 	nop
     b34:	e037883a 	mov	sp,fp
     b38:	dfc00117 	ldw	ra,4(sp)
     b3c:	df000017 	ldw	fp,0(sp)
     b40:	dec00204 	addi	sp,sp,8
     b44:	f800283a 	ret

00000b48 <_ZN4Game14updateMovementEP6Entityi>:

void Game::updateMovement(Entity* en, int elapsedTime){
     b48:	defff204 	addi	sp,sp,-56
     b4c:	dfc00d15 	stw	ra,52(sp)
     b50:	df000c15 	stw	fp,48(sp)
     b54:	dc000b15 	stw	r16,44(sp)
     b58:	df000c04 	addi	fp,sp,48
     b5c:	e13ffc15 	stw	r4,-16(fp)
     b60:	e17ffd15 	stw	r5,-12(fp)
     b64:	e1bffe15 	stw	r6,-8(fp)
	en->update(elapsedTime);
     b68:	e17ffe17 	ldw	r5,-8(fp)
     b6c:	e13ffd17 	ldw	r4,-12(fp)
     b70:	00003640 	call	364 <_ZN6Entity6updateEi>

	int up, down, left, right;
	distanceToWalls(en, &up, &down, &left, &right);
     b74:	e13ff904 	addi	r4,fp,-28
     b78:	e0fff804 	addi	r3,fp,-32
     b7c:	e0bffb04 	addi	r2,fp,-20
     b80:	d8800115 	stw	r2,4(sp)
     b84:	e0bffa04 	addi	r2,fp,-24
     b88:	d8800015 	stw	r2,0(sp)
     b8c:	200f883a 	mov	r7,r4
     b90:	180d883a 	mov	r6,r3
     b94:	e17ffd17 	ldw	r5,-12(fp)
     b98:	e13ffc17 	ldw	r4,-16(fp)
     b9c:	00008780 	call	878 <_ZN4Game15distanceToWallsEP6EntityPiS2_S2_S2_>

	float timeFraction = (float)elapsedTime / 1000;
     ba0:	e13ffe17 	ldw	r4,-8(fp)
     ba4:	00059580 	call	5958 <__floatsisf>
     ba8:	1007883a 	mov	r3,r2
     bac:	00911eb4 	movhi	r2,17530
     bb0:	1885fff2 	custom	255,r2,r3,r2
     bb4:	e0bff615 	stw	r2,-40(fp)
	int walk = roundf(timeFraction * en->getVelocity());
     bb8:	e13ffd17 	ldw	r4,-12(fp)
     bbc:	00004d00 	call	4d0 <_ZN6Entity11getVelocityEv>
     bc0:	1009883a 	mov	r4,r2
     bc4:	00059580 	call	5958 <__floatsisf>
     bc8:	1007883a 	mov	r3,r2
     bcc:	e0bff617 	ldw	r2,-40(fp)
     bd0:	1885ff32 	custom	252,r2,r3,r2
     bd4:	1009883a 	mov	r4,r2
     bd8:	00052180 	call	5218 <roundf>
     bdc:	1007883a 	mov	r3,r2
     be0:	1809883a 	mov	r4,r3
     be4:	00058e80 	call	58e8 <__fixsfsi>
     be8:	e0bff715 	stw	r2,-36(fp)

	switch(en->getDir()){
     bec:	e13ffd17 	ldw	r4,-12(fp)
     bf0:	00005480 	call	548 <_ZN6Entity6getDirEv>
     bf4:	10c00060 	cmpeqi	r3,r2,1
     bf8:	18001b1e 	bne	r3,zero,c68 <_ZN4Game14updateMovementEP6Entityi+0x120>
     bfc:	10c00088 	cmpgei	r3,r2,2
     c00:	1800021e 	bne	r3,zero,c0c <_ZN4Game14updateMovementEP6Entityi+0xc4>
     c04:	10000626 	beq	r2,zero,c20 <_ZN4Game14updateMovementEP6Entityi+0xd8>
		case DIR_UP: 	en->setPos(en->getX(), en->getY() - SHORTEST(walk, up)); break;
		case DIR_DOWN: 	en->setPos(en->getX(), en->getY() + SHORTEST(walk, down)); break;
		case DIR_LEFT: 	en->setPos(en->getX() - SHORTEST(walk, left), en->getY()); break;
		case DIR_RIGHT: en->setPos(en->getX() + SHORTEST(walk, right), en->getY()); break;
		default: break;
     c08:	00004b06 	br	d38 <_ZN4Game14updateMovementEP6Entityi+0x1f0>
	distanceToWalls(en, &up, &down, &left, &right);

	float timeFraction = (float)elapsedTime / 1000;
	int walk = roundf(timeFraction * en->getVelocity());

	switch(en->getDir()){
     c0c:	10c000a0 	cmpeqi	r3,r2,2
     c10:	1800271e 	bne	r3,zero,cb0 <_ZN4Game14updateMovementEP6Entityi+0x168>
     c14:	108000e0 	cmpeqi	r2,r2,3
     c18:	1000361e 	bne	r2,zero,cf4 <_ZN4Game14updateMovementEP6Entityi+0x1ac>
		case DIR_UP: 	en->setPos(en->getX(), en->getY() - SHORTEST(walk, up)); break;
		case DIR_DOWN: 	en->setPos(en->getX(), en->getY() + SHORTEST(walk, down)); break;
		case DIR_LEFT: 	en->setPos(en->getX() - SHORTEST(walk, left), en->getY()); break;
		case DIR_RIGHT: en->setPos(en->getX() + SHORTEST(walk, right), en->getY()); break;
		default: break;
     c1c:	00004606 	br	d38 <_ZN4Game14updateMovementEP6Entityi+0x1f0>

	float timeFraction = (float)elapsedTime / 1000;
	int walk = roundf(timeFraction * en->getVelocity());

	switch(en->getDir()){
		case DIR_UP: 	en->setPos(en->getX(), en->getY() - SHORTEST(walk, up)); break;
     c20:	e13ffd17 	ldw	r4,-12(fp)
     c24:	00004f80 	call	4f8 <_ZN6Entity4getXEv>
     c28:	1021883a 	mov	r16,r2
     c2c:	e13ffd17 	ldw	r4,-12(fp)
     c30:	00005200 	call	520 <_ZN6Entity4getYEv>
     c34:	1009883a 	mov	r4,r2
     c38:	e0fff817 	ldw	r3,-32(fp)
     c3c:	e0bff717 	ldw	r2,-36(fp)
     c40:	1880020e 	bge	r3,r2,c4c <_ZN4Game14updateMovementEP6Entityi+0x104>
     c44:	e0bff817 	ldw	r2,-32(fp)
     c48:	00000106 	br	c50 <_ZN4Game14updateMovementEP6Entityi+0x108>
     c4c:	e0bff717 	ldw	r2,-36(fp)
     c50:	2085c83a 	sub	r2,r4,r2
     c54:	100d883a 	mov	r6,r2
     c58:	800b883a 	mov	r5,r16
     c5c:	e13ffd17 	ldw	r4,-12(fp)
     c60:	00004800 	call	480 <_ZN6Entity6setPosEii>
     c64:	00003406 	br	d38 <_ZN4Game14updateMovementEP6Entityi+0x1f0>
		case DIR_DOWN: 	en->setPos(en->getX(), en->getY() + SHORTEST(walk, down)); break;
     c68:	e13ffd17 	ldw	r4,-12(fp)
     c6c:	00004f80 	call	4f8 <_ZN6Entity4getXEv>
     c70:	1021883a 	mov	r16,r2
     c74:	e13ffd17 	ldw	r4,-12(fp)
     c78:	00005200 	call	520 <_ZN6Entity4getYEv>
     c7c:	1009883a 	mov	r4,r2
     c80:	e0fff917 	ldw	r3,-28(fp)
     c84:	e0bff717 	ldw	r2,-36(fp)
     c88:	1880020e 	bge	r3,r2,c94 <_ZN4Game14updateMovementEP6Entityi+0x14c>
     c8c:	e0bff917 	ldw	r2,-28(fp)
     c90:	00000106 	br	c98 <_ZN4Game14updateMovementEP6Entityi+0x150>
     c94:	e0bff717 	ldw	r2,-36(fp)
     c98:	2085883a 	add	r2,r4,r2
     c9c:	100d883a 	mov	r6,r2
     ca0:	800b883a 	mov	r5,r16
     ca4:	e13ffd17 	ldw	r4,-12(fp)
     ca8:	00004800 	call	480 <_ZN6Entity6setPosEii>
     cac:	00002206 	br	d38 <_ZN4Game14updateMovementEP6Entityi+0x1f0>
		case DIR_LEFT: 	en->setPos(en->getX() - SHORTEST(walk, left), en->getY()); break;
     cb0:	e13ffd17 	ldw	r4,-12(fp)
     cb4:	00004f80 	call	4f8 <_ZN6Entity4getXEv>
     cb8:	1009883a 	mov	r4,r2
     cbc:	e0fffa17 	ldw	r3,-24(fp)
     cc0:	e0bff717 	ldw	r2,-36(fp)
     cc4:	1880020e 	bge	r3,r2,cd0 <_ZN4Game14updateMovementEP6Entityi+0x188>
     cc8:	e0bffa17 	ldw	r2,-24(fp)
     ccc:	00000106 	br	cd4 <_ZN4Game14updateMovementEP6Entityi+0x18c>
     cd0:	e0bff717 	ldw	r2,-36(fp)
     cd4:	20a1c83a 	sub	r16,r4,r2
     cd8:	e13ffd17 	ldw	r4,-12(fp)
     cdc:	00005200 	call	520 <_ZN6Entity4getYEv>
     ce0:	100d883a 	mov	r6,r2
     ce4:	800b883a 	mov	r5,r16
     ce8:	e13ffd17 	ldw	r4,-12(fp)
     cec:	00004800 	call	480 <_ZN6Entity6setPosEii>
     cf0:	00001106 	br	d38 <_ZN4Game14updateMovementEP6Entityi+0x1f0>
		case DIR_RIGHT: en->setPos(en->getX() + SHORTEST(walk, right), en->getY()); break;
     cf4:	e13ffd17 	ldw	r4,-12(fp)
     cf8:	00004f80 	call	4f8 <_ZN6Entity4getXEv>
     cfc:	1009883a 	mov	r4,r2
     d00:	e0fffb17 	ldw	r3,-20(fp)
     d04:	e0bff717 	ldw	r2,-36(fp)
     d08:	1880020e 	bge	r3,r2,d14 <_ZN4Game14updateMovementEP6Entityi+0x1cc>
     d0c:	e0bffb17 	ldw	r2,-20(fp)
     d10:	00000106 	br	d18 <_ZN4Game14updateMovementEP6Entityi+0x1d0>
     d14:	e0bff717 	ldw	r2,-36(fp)
     d18:	20a1883a 	add	r16,r4,r2
     d1c:	e13ffd17 	ldw	r4,-12(fp)
     d20:	00005200 	call	520 <_ZN6Entity4getYEv>
     d24:	100d883a 	mov	r6,r2
     d28:	800b883a 	mov	r5,r16
     d2c:	e13ffd17 	ldw	r4,-12(fp)
     d30:	00004800 	call	480 <_ZN6Entity6setPosEii>
     d34:	0001883a 	nop
		default: break;
	};
};
     d38:	0001883a 	nop
     d3c:	e6ffff04 	addi	sp,fp,-4
     d40:	dfc00217 	ldw	ra,8(sp)
     d44:	df000117 	ldw	fp,4(sp)
     d48:	dc000017 	ldw	r16,0(sp)
     d4c:	dec00304 	addi	sp,sp,12
     d50:	f800283a 	ret

00000d54 <_ZN4Game8walkableE10map_item_t>:

uint8_t Game::walkable(map_item_t item){
     d54:	defffd04 	addi	sp,sp,-12
     d58:	df000215 	stw	fp,8(sp)
     d5c:	df000204 	addi	fp,sp,8
     d60:	e13ffe15 	stw	r4,-8(fp)
     d64:	e17fff15 	stw	r5,-4(fp)
	return (item == em || item == pd);
     d68:	e0bfff17 	ldw	r2,-4(fp)
     d6c:	10000326 	beq	r2,zero,d7c <_ZN4Game8walkableE10map_item_t+0x28>
     d70:	e0bfff17 	ldw	r2,-4(fp)
     d74:	10800058 	cmpnei	r2,r2,1
     d78:	1000021e 	bne	r2,zero,d84 <_ZN4Game8walkableE10map_item_t+0x30>
     d7c:	00800044 	movi	r2,1
     d80:	00000106 	br	d88 <_ZN4Game8walkableE10map_item_t+0x34>
     d84:	0005883a 	mov	r2,zero
};
     d88:	e037883a 	mov	sp,fp
     d8c:	df000017 	ldw	fp,0(sp)
     d90:	dec00104 	addi	sp,sp,4
     d94:	f800283a 	ret

00000d98 <_ZN4Game4drawEv>:

void Game::draw(){
     d98:	defffd04 	addi	sp,sp,-12
     d9c:	dfc00215 	stw	ra,8(sp)
     da0:	df000115 	stw	fp,4(sp)
     da4:	df000104 	addi	fp,sp,4
     da8:	e13fff15 	stw	r4,-4(fp)
	switch(state){
     dac:	e0bfff17 	ldw	r2,-4(fp)
     db0:	10807c17 	ldw	r2,496(r2)
     db4:	10000326 	beq	r2,zero,dc4 <_ZN4Game4drawEv+0x2c>
     db8:	10800060 	cmpeqi	r2,r2,1
     dbc:	1000071e 	bne	r2,zero,ddc <_ZN4Game4drawEv+0x44>
			break;
		case LEVEL_RUN:
			player.draw(vi);
			break;
	}
};
     dc0:	00000e06 	br	dfc <_ZN4Game4drawEv+0x64>
};

void Game::draw(){
	switch(state){
		case LEVEL_START:
			drawMap();
     dc4:	e13fff17 	ldw	r4,-4(fp)
     dc8:	0000e140 	call	e14 <_ZN4Game7drawMapEv>
			state = LEVEL_RUN;
     dcc:	e0bfff17 	ldw	r2,-4(fp)
     dd0:	00c00044 	movi	r3,1
     dd4:	10c07c15 	stw	r3,496(r2)
			break;
     dd8:	00000806 	br	dfc <_ZN4Game4drawEv+0x64>
		case LEVEL_RUN:
			player.draw(vi);
     ddc:	e0bfff17 	ldw	r2,-4(fp)
     de0:	10c00204 	addi	r3,r2,8
     de4:	e0bfff17 	ldw	r2,-4(fp)
     de8:	10800117 	ldw	r2,4(r2)
     dec:	100b883a 	mov	r5,r2
     df0:	1809883a 	mov	r4,r3
     df4:	00003e00 	call	3e0 <_ZN6Entity4drawEP14VideoInterface>
			break;
     df8:	0001883a 	nop
	}
};
     dfc:	0001883a 	nop
     e00:	e037883a 	mov	sp,fp
     e04:	dfc00117 	ldw	ra,4(sp)
     e08:	df000017 	ldw	fp,0(sp)
     e0c:	dec00204 	addi	sp,sp,8
     e10:	f800283a 	ret

00000e14 <_ZN4Game7drawMapEv>:

void Game::drawMap(){
     e14:	defff904 	addi	sp,sp,-28
     e18:	dfc00615 	stw	ra,24(sp)
     e1c:	df000515 	stw	fp,20(sp)
     e20:	df000504 	addi	fp,sp,20
     e24:	e13fff15 	stw	r4,-4(fp)
	for(int v = 0; v < 27; v++){
     e28:	e03ffd15 	stw	zero,-12(fp)
     e2c:	e0bffd17 	ldw	r2,-12(fp)
     e30:	108006c8 	cmpgei	r2,r2,27
     e34:	1004341e 	bne	r2,zero,1f08 <_ZN4Game7drawMapEv+0x10f4>
			for(int h = 0; h < 21; h++){
     e38:	e03ffe15 	stw	zero,-8(fp)
     e3c:	e0bffe17 	ldw	r2,-8(fp)
     e40:	10800548 	cmpgei	r2,r2,21
     e44:	10042c1e 	bne	r2,zero,1ef8 <_ZN4Game7drawMapEv+0x10e4>
				if(simpleMap){
     e48:	e0bfff17 	ldw	r2,-4(fp)
     e4c:	10807d03 	ldbu	r2,500(r2)
     e50:	10803fcc 	andi	r2,r2,255
     e54:	10002126 	beq	r2,zero,edc <_ZN4Game7drawMapEv+0xc8>
					if(!walkable(map[v][h]))
     e58:	e0ffff17 	ldw	r3,-4(fp)
     e5c:	e0bffd17 	ldw	r2,-12(fp)
     e60:	11000564 	muli	r4,r2,21
     e64:	e0bffe17 	ldw	r2,-8(fp)
     e68:	2085883a 	add	r2,r4,r2
     e6c:	10801fc4 	addi	r2,r2,127
     e70:	1085883a 	add	r2,r2,r2
     e74:	1085883a 	add	r2,r2,r2
     e78:	1885883a 	add	r2,r3,r2
     e7c:	10800017 	ldw	r2,0(r2)
     e80:	100b883a 	mov	r5,r2
     e84:	e13fff17 	ldw	r4,-4(fp)
     e88:	0000d540 	call	d54 <_ZN4Game8walkableE10map_item_t>
     e8c:	10803fcc 	andi	r2,r2,255
     e90:	1005003a 	cmpeq	r2,r2,zero
     e94:	10803fcc 	andi	r2,r2,255
     e98:	10041326 	beq	r2,zero,1ee8 <_ZN4Game7drawMapEv+0x10d4>
						vi->drawRect(H(0), V(0), 8, 8, RGB565(0, 74, 241));
     e9c:	e0bfff17 	ldw	r2,-4(fp)
     ea0:	10c00117 	ldw	r3,4(r2)
     ea4:	e0bffe17 	ldw	r2,-8(fp)
     ea8:	100890fa 	slli	r4,r2,3
     eac:	e0bffd17 	ldw	r2,-12(fp)
     eb0:	100a90fa 	slli	r5,r2,3
     eb4:	00809784 	movi	r2,606
     eb8:	d8800115 	stw	r2,4(sp)
     ebc:	00800204 	movi	r2,8
     ec0:	d8800015 	stw	r2,0(sp)
     ec4:	01c00204 	movi	r7,8
     ec8:	280d883a 	mov	r6,r5
     ecc:	200b883a 	mov	r5,r4
     ed0:	1809883a 	mov	r4,r3
     ed4:	0002b700 	call	2b70 <_ZN14VideoInterface8drawRectEiiiit>
     ed8:	00040306 	br	1ee8 <_ZN4Game7drawMapEv+0x10d4>
				}else{
					switch(map[v][h]){
     edc:	e0ffff17 	ldw	r3,-4(fp)
     ee0:	e0bffd17 	ldw	r2,-12(fp)
     ee4:	11000564 	muli	r4,r2,21
     ee8:	e0bffe17 	ldw	r2,-8(fp)
     eec:	2085883a 	add	r2,r4,r2
     ef0:	10801fc4 	addi	r2,r2,127
     ef4:	1085883a 	add	r2,r2,r2
     ef8:	1085883a 	add	r2,r2,r2
     efc:	1885883a 	add	r2,r3,r2
     f00:	10800017 	ldw	r2,0(r2)
     f04:	10c00428 	cmpgeui	r3,r2,16
     f08:	1803f61e 	bne	r3,zero,1ee4 <_ZN4Game7drawMapEv+0x10d0>
     f0c:	100690ba 	slli	r3,r2,2
     f10:	00800034 	movhi	r2,0
     f14:	1083c904 	addi	r2,r2,3876
     f18:	1885883a 	add	r2,r3,r2
     f1c:	10800017 	ldw	r2,0(r2)
     f20:	1000683a 	jmp	r2
     f24:	00001ee4 	muli	zero,zero,123
     f28:	00000f64 	muli	zero,zero,61
     f2c:	00000fac 	andhi	zero,zero,62
     f30:	00001104 	movi	zero,68
     f34:	00001254 	movui	zero,73
     f38:	000013a4 	muli	zero,zero,78
     f3c:	000014ec 	andhi	zero,zero,83
     f40:	00001578 	rdprs	zero,zero,85
     f44:	00001604 	movi	zero,88
     f48:	00001760 	cmpeqi	zero,zero,93
     f4c:	000018c4 	movi	zero,99
     f50:	00001a20 	cmpeqi	zero,zero,104
     f54:	00001b84 	movi	zero,110
     f58:	00001c58 	cmpnei	zero,zero,113
     f5c:	00001d34 	movhi	zero,116
     f60:	00001e08 	cmpgei	zero,zero,120
						case pd:
							vi->drawRect(H(3), V(3), 2, 2, RGB565(255, 165, 0));
     f64:	e0bfff17 	ldw	r2,-4(fp)
     f68:	10c00117 	ldw	r3,4(r2)
     f6c:	e0bffe17 	ldw	r2,-8(fp)
     f70:	100490fa 	slli	r2,r2,3
     f74:	110000c4 	addi	r4,r2,3
     f78:	e0bffd17 	ldw	r2,-12(fp)
     f7c:	100490fa 	slli	r2,r2,3
     f80:	114000c4 	addi	r5,r2,3
     f84:	00bf4814 	movui	r2,64800
     f88:	d8800115 	stw	r2,4(sp)
     f8c:	00800084 	movi	r2,2
     f90:	d8800015 	stw	r2,0(sp)
     f94:	01c00084 	movi	r7,2
     f98:	280d883a 	mov	r6,r5
     f9c:	200b883a 	mov	r5,r4
     fa0:	1809883a 	mov	r4,r3
     fa4:	0002b700 	call	2b70 <_ZN14VideoInterface8drawRectEiiiit>
							break;
     fa8:	0003cf06 	br	1ee8 <_ZN4Game7drawMapEv+0x10d4>
						case c1:
							vi->drawLine(H(4), V(2), H(7), V(2), RGB565(0, 74, 241));
     fac:	e0bfff17 	ldw	r2,-4(fp)
     fb0:	11000117 	ldw	r4,4(r2)
     fb4:	e0bffe17 	ldw	r2,-8(fp)
     fb8:	100490fa 	slli	r2,r2,3
     fbc:	11400104 	addi	r5,r2,4
     fc0:	e0bffd17 	ldw	r2,-12(fp)
     fc4:	100490fa 	slli	r2,r2,3
     fc8:	11800084 	addi	r6,r2,2
     fcc:	e0bffe17 	ldw	r2,-8(fp)
     fd0:	100490fa 	slli	r2,r2,3
     fd4:	11c001c4 	addi	r7,r2,7
     fd8:	e0bffd17 	ldw	r2,-12(fp)
     fdc:	100490fa 	slli	r2,r2,3
     fe0:	10800084 	addi	r2,r2,2
     fe4:	00c09784 	movi	r3,606
     fe8:	d8c00115 	stw	r3,4(sp)
     fec:	d8800015 	stw	r2,0(sp)
     ff0:	0002a680 	call	2a68 <_ZN14VideoInterface8drawLineEiiiit>
							vi->drawLine(H(2), V(4), H(2), V(7), RGB565(0, 74, 241));
     ff4:	e0bfff17 	ldw	r2,-4(fp)
     ff8:	11000117 	ldw	r4,4(r2)
     ffc:	e0bffe17 	ldw	r2,-8(fp)
    1000:	100490fa 	slli	r2,r2,3
    1004:	11400084 	addi	r5,r2,2
    1008:	e0bffd17 	ldw	r2,-12(fp)
    100c:	100490fa 	slli	r2,r2,3
    1010:	11800104 	addi	r6,r2,4
    1014:	e0bffe17 	ldw	r2,-8(fp)
    1018:	100490fa 	slli	r2,r2,3
    101c:	11c00084 	addi	r7,r2,2
    1020:	e0bffd17 	ldw	r2,-12(fp)
    1024:	100490fa 	slli	r2,r2,3
    1028:	108001c4 	addi	r2,r2,7
    102c:	00c09784 	movi	r3,606
    1030:	d8c00115 	stw	r3,4(sp)
    1034:	d8800015 	stw	r2,0(sp)
    1038:	0002a680 	call	2a68 <_ZN14VideoInterface8drawLineEiiiit>
							vi->drawPixel(H(3), V(3), RGB565(0, 74, 241));
    103c:	e0bfff17 	ldw	r2,-4(fp)
    1040:	10c00117 	ldw	r3,4(r2)
    1044:	e0bffe17 	ldw	r2,-8(fp)
    1048:	100490fa 	slli	r2,r2,3
    104c:	110000c4 	addi	r4,r2,3
    1050:	e0bffd17 	ldw	r2,-12(fp)
    1054:	100490fa 	slli	r2,r2,3
    1058:	108000c4 	addi	r2,r2,3
    105c:	01c09784 	movi	r7,606
    1060:	100d883a 	mov	r6,r2
    1064:	200b883a 	mov	r5,r4
    1068:	1809883a 	mov	r4,r3
    106c:	000283c0 	call	283c <_ZN14VideoInterface9drawPixelEiit>
							vi->drawLine(H(6), V(5), H(7), V(5), RGB565(0, 74, 241));
    1070:	e0bfff17 	ldw	r2,-4(fp)
    1074:	11000117 	ldw	r4,4(r2)
    1078:	e0bffe17 	ldw	r2,-8(fp)
    107c:	100490fa 	slli	r2,r2,3
    1080:	11400184 	addi	r5,r2,6
    1084:	e0bffd17 	ldw	r2,-12(fp)
    1088:	100490fa 	slli	r2,r2,3
    108c:	11800144 	addi	r6,r2,5
    1090:	e0bffe17 	ldw	r2,-8(fp)
    1094:	100490fa 	slli	r2,r2,3
    1098:	11c001c4 	addi	r7,r2,7
    109c:	e0bffd17 	ldw	r2,-12(fp)
    10a0:	100490fa 	slli	r2,r2,3
    10a4:	10800144 	addi	r2,r2,5
    10a8:	00c09784 	movi	r3,606
    10ac:	d8c00115 	stw	r3,4(sp)
    10b0:	d8800015 	stw	r2,0(sp)
    10b4:	0002a680 	call	2a68 <_ZN14VideoInterface8drawLineEiiiit>
							vi->drawLine(H(5), V(6), H(5), V(7), RGB565(0, 74, 241));
    10b8:	e0bfff17 	ldw	r2,-4(fp)
    10bc:	11000117 	ldw	r4,4(r2)
    10c0:	e0bffe17 	ldw	r2,-8(fp)
    10c4:	100490fa 	slli	r2,r2,3
    10c8:	11400144 	addi	r5,r2,5
    10cc:	e0bffd17 	ldw	r2,-12(fp)
    10d0:	100490fa 	slli	r2,r2,3
    10d4:	11800184 	addi	r6,r2,6
    10d8:	e0bffe17 	ldw	r2,-8(fp)
    10dc:	100490fa 	slli	r2,r2,3
    10e0:	11c00144 	addi	r7,r2,5
    10e4:	e0bffd17 	ldw	r2,-12(fp)
    10e8:	100490fa 	slli	r2,r2,3
    10ec:	108001c4 	addi	r2,r2,7
    10f0:	00c09784 	movi	r3,606
    10f4:	d8c00115 	stw	r3,4(sp)
    10f8:	d8800015 	stw	r2,0(sp)
    10fc:	0002a680 	call	2a68 <_ZN14VideoInterface8drawLineEiiiit>
							break;
    1100:	00037906 	br	1ee8 <_ZN4Game7drawMapEv+0x10d4>
						case c2:
							vi->drawLine(H(0), V(2), H(3), V(2), RGB565(0, 74, 241));
    1104:	e0bfff17 	ldw	r2,-4(fp)
    1108:	11000117 	ldw	r4,4(r2)
    110c:	e0bffe17 	ldw	r2,-8(fp)
    1110:	100a90fa 	slli	r5,r2,3
    1114:	e0bffd17 	ldw	r2,-12(fp)
    1118:	100490fa 	slli	r2,r2,3
    111c:	11800084 	addi	r6,r2,2
    1120:	e0bffe17 	ldw	r2,-8(fp)
    1124:	100490fa 	slli	r2,r2,3
    1128:	11c000c4 	addi	r7,r2,3
    112c:	e0bffd17 	ldw	r2,-12(fp)
    1130:	100490fa 	slli	r2,r2,3
    1134:	10800084 	addi	r2,r2,2
    1138:	00c09784 	movi	r3,606
    113c:	d8c00115 	stw	r3,4(sp)
    1140:	d8800015 	stw	r2,0(sp)
    1144:	0002a680 	call	2a68 <_ZN14VideoInterface8drawLineEiiiit>
							vi->drawLine(H(5), V(4), H(5), V(7), RGB565(0, 74, 241));
    1148:	e0bfff17 	ldw	r2,-4(fp)
    114c:	11000117 	ldw	r4,4(r2)
    1150:	e0bffe17 	ldw	r2,-8(fp)
    1154:	100490fa 	slli	r2,r2,3
    1158:	11400144 	addi	r5,r2,5
    115c:	e0bffd17 	ldw	r2,-12(fp)
    1160:	100490fa 	slli	r2,r2,3
    1164:	11800104 	addi	r6,r2,4
    1168:	e0bffe17 	ldw	r2,-8(fp)
    116c:	100490fa 	slli	r2,r2,3
    1170:	11c00144 	addi	r7,r2,5
    1174:	e0bffd17 	ldw	r2,-12(fp)
    1178:	100490fa 	slli	r2,r2,3
    117c:	108001c4 	addi	r2,r2,7
    1180:	00c09784 	movi	r3,606
    1184:	d8c00115 	stw	r3,4(sp)
    1188:	d8800015 	stw	r2,0(sp)
    118c:	0002a680 	call	2a68 <_ZN14VideoInterface8drawLineEiiiit>
							vi->drawPixel(H(4), V(3), RGB565(0, 74, 241));
    1190:	e0bfff17 	ldw	r2,-4(fp)
    1194:	10c00117 	ldw	r3,4(r2)
    1198:	e0bffe17 	ldw	r2,-8(fp)
    119c:	100490fa 	slli	r2,r2,3
    11a0:	11000104 	addi	r4,r2,4
    11a4:	e0bffd17 	ldw	r2,-12(fp)
    11a8:	100490fa 	slli	r2,r2,3
    11ac:	108000c4 	addi	r2,r2,3
    11b0:	01c09784 	movi	r7,606
    11b4:	100d883a 	mov	r6,r2
    11b8:	200b883a 	mov	r5,r4
    11bc:	1809883a 	mov	r4,r3
    11c0:	000283c0 	call	283c <_ZN14VideoInterface9drawPixelEiit>
							vi->drawLine(H(0), V(5), H(1), V(5), RGB565(0, 74, 241));
    11c4:	e0bfff17 	ldw	r2,-4(fp)
    11c8:	11000117 	ldw	r4,4(r2)
    11cc:	e0bffe17 	ldw	r2,-8(fp)
    11d0:	100a90fa 	slli	r5,r2,3
    11d4:	e0bffd17 	ldw	r2,-12(fp)
    11d8:	100490fa 	slli	r2,r2,3
    11dc:	11800144 	addi	r6,r2,5
    11e0:	e0bffe17 	ldw	r2,-8(fp)
    11e4:	100490fa 	slli	r2,r2,3
    11e8:	11c00044 	addi	r7,r2,1
    11ec:	e0bffd17 	ldw	r2,-12(fp)
    11f0:	100490fa 	slli	r2,r2,3
    11f4:	10800144 	addi	r2,r2,5
    11f8:	00c09784 	movi	r3,606
    11fc:	d8c00115 	stw	r3,4(sp)
    1200:	d8800015 	stw	r2,0(sp)
    1204:	0002a680 	call	2a68 <_ZN14VideoInterface8drawLineEiiiit>
							vi->drawLine(H(2), V(5), H(2), V(7), RGB565(0, 74, 241));
    1208:	e0bfff17 	ldw	r2,-4(fp)
    120c:	11000117 	ldw	r4,4(r2)
    1210:	e0bffe17 	ldw	r2,-8(fp)
    1214:	100490fa 	slli	r2,r2,3
    1218:	11400084 	addi	r5,r2,2
    121c:	e0bffd17 	ldw	r2,-12(fp)
    1220:	100490fa 	slli	r2,r2,3
    1224:	11800144 	addi	r6,r2,5
    1228:	e0bffe17 	ldw	r2,-8(fp)
    122c:	100490fa 	slli	r2,r2,3
    1230:	11c00084 	addi	r7,r2,2
    1234:	e0bffd17 	ldw	r2,-12(fp)
    1238:	100490fa 	slli	r2,r2,3
    123c:	108001c4 	addi	r2,r2,7
    1240:	00c09784 	movi	r3,606
    1244:	d8c00115 	stw	r3,4(sp)
    1248:	d8800015 	stw	r2,0(sp)
    124c:	0002a680 	call	2a68 <_ZN14VideoInterface8drawLineEiiiit>
							break;
    1250:	00032506 	br	1ee8 <_ZN4Game7drawMapEv+0x10d4>
						case c3:
							vi->drawLine(H(2), V(0), H(2), V(3), RGB565(0, 74, 241));
    1254:	e0bfff17 	ldw	r2,-4(fp)
    1258:	11000117 	ldw	r4,4(r2)
    125c:	e0bffe17 	ldw	r2,-8(fp)
    1260:	100490fa 	slli	r2,r2,3
    1264:	11400084 	addi	r5,r2,2
    1268:	e0bffd17 	ldw	r2,-12(fp)
    126c:	100c90fa 	slli	r6,r2,3
    1270:	e0bffe17 	ldw	r2,-8(fp)
    1274:	100490fa 	slli	r2,r2,3
    1278:	11c00084 	addi	r7,r2,2
    127c:	e0bffd17 	ldw	r2,-12(fp)
    1280:	100490fa 	slli	r2,r2,3
    1284:	108000c4 	addi	r2,r2,3
    1288:	00c09784 	movi	r3,606
    128c:	d8c00115 	stw	r3,4(sp)
    1290:	d8800015 	stw	r2,0(sp)
    1294:	0002a680 	call	2a68 <_ZN14VideoInterface8drawLineEiiiit>
							vi->drawLine(H(4), V(5), H(7), V(5), RGB565(0, 74, 241));
    1298:	e0bfff17 	ldw	r2,-4(fp)
    129c:	11000117 	ldw	r4,4(r2)
    12a0:	e0bffe17 	ldw	r2,-8(fp)
    12a4:	100490fa 	slli	r2,r2,3
    12a8:	11400104 	addi	r5,r2,4
    12ac:	e0bffd17 	ldw	r2,-12(fp)
    12b0:	100490fa 	slli	r2,r2,3
    12b4:	11800144 	addi	r6,r2,5
    12b8:	e0bffe17 	ldw	r2,-8(fp)
    12bc:	100490fa 	slli	r2,r2,3
    12c0:	11c001c4 	addi	r7,r2,7
    12c4:	e0bffd17 	ldw	r2,-12(fp)
    12c8:	100490fa 	slli	r2,r2,3
    12cc:	10800144 	addi	r2,r2,5
    12d0:	00c09784 	movi	r3,606
    12d4:	d8c00115 	stw	r3,4(sp)
    12d8:	d8800015 	stw	r2,0(sp)
    12dc:	0002a680 	call	2a68 <_ZN14VideoInterface8drawLineEiiiit>
							vi->drawPixel(H(3), V(4), RGB565(0, 74, 241));
    12e0:	e0bfff17 	ldw	r2,-4(fp)
    12e4:	10c00117 	ldw	r3,4(r2)
    12e8:	e0bffe17 	ldw	r2,-8(fp)
    12ec:	100490fa 	slli	r2,r2,3
    12f0:	110000c4 	addi	r4,r2,3
    12f4:	e0bffd17 	ldw	r2,-12(fp)
    12f8:	100490fa 	slli	r2,r2,3
    12fc:	10800104 	addi	r2,r2,4
    1300:	01c09784 	movi	r7,606
    1304:	100d883a 	mov	r6,r2
    1308:	200b883a 	mov	r5,r4
    130c:	1809883a 	mov	r4,r3
    1310:	000283c0 	call	283c <_ZN14VideoInterface9drawPixelEiit>
							vi->drawLine(H(5), V(0), H(5), V(1), RGB565(0, 74, 241));
    1314:	e0bfff17 	ldw	r2,-4(fp)
    1318:	11000117 	ldw	r4,4(r2)
    131c:	e0bffe17 	ldw	r2,-8(fp)
    1320:	100490fa 	slli	r2,r2,3
    1324:	11400144 	addi	r5,r2,5
    1328:	e0bffd17 	ldw	r2,-12(fp)
    132c:	100c90fa 	slli	r6,r2,3
    1330:	e0bffe17 	ldw	r2,-8(fp)
    1334:	100490fa 	slli	r2,r2,3
    1338:	11c00144 	addi	r7,r2,5
    133c:	e0bffd17 	ldw	r2,-12(fp)
    1340:	100490fa 	slli	r2,r2,3
    1344:	10800044 	addi	r2,r2,1
    1348:	00c09784 	movi	r3,606
    134c:	d8c00115 	stw	r3,4(sp)
    1350:	d8800015 	stw	r2,0(sp)
    1354:	0002a680 	call	2a68 <_ZN14VideoInterface8drawLineEiiiit>
							vi->drawLine(H(6), V(2), H(7), V(2), RGB565(0, 74, 241));
    1358:	e0bfff17 	ldw	r2,-4(fp)
    135c:	11000117 	ldw	r4,4(r2)
    1360:	e0bffe17 	ldw	r2,-8(fp)
    1364:	100490fa 	slli	r2,r2,3
    1368:	11400184 	addi	r5,r2,6
    136c:	e0bffd17 	ldw	r2,-12(fp)
    1370:	100490fa 	slli	r2,r2,3
    1374:	11800084 	addi	r6,r2,2
    1378:	e0bffe17 	ldw	r2,-8(fp)
    137c:	100490fa 	slli	r2,r2,3
    1380:	11c001c4 	addi	r7,r2,7
    1384:	e0bffd17 	ldw	r2,-12(fp)
    1388:	100490fa 	slli	r2,r2,3
    138c:	10800084 	addi	r2,r2,2
    1390:	00c09784 	movi	r3,606
    1394:	d8c00115 	stw	r3,4(sp)
    1398:	d8800015 	stw	r2,0(sp)
    139c:	0002a680 	call	2a68 <_ZN14VideoInterface8drawLineEiiiit>
							break;
    13a0:	0002d106 	br	1ee8 <_ZN4Game7drawMapEv+0x10d4>
						case c4:
							vi->drawLine(H(5), V(0), H(5), V(3), RGB565(0, 74, 241));
    13a4:	e0bfff17 	ldw	r2,-4(fp)
    13a8:	11000117 	ldw	r4,4(r2)
    13ac:	e0bffe17 	ldw	r2,-8(fp)
    13b0:	100490fa 	slli	r2,r2,3
    13b4:	11400144 	addi	r5,r2,5
    13b8:	e0bffd17 	ldw	r2,-12(fp)
    13bc:	100c90fa 	slli	r6,r2,3
    13c0:	e0bffe17 	ldw	r2,-8(fp)
    13c4:	100490fa 	slli	r2,r2,3
    13c8:	11c00144 	addi	r7,r2,5
    13cc:	e0bffd17 	ldw	r2,-12(fp)
    13d0:	100490fa 	slli	r2,r2,3
    13d4:	108000c4 	addi	r2,r2,3
    13d8:	00c09784 	movi	r3,606
    13dc:	d8c00115 	stw	r3,4(sp)
    13e0:	d8800015 	stw	r2,0(sp)
    13e4:	0002a680 	call	2a68 <_ZN14VideoInterface8drawLineEiiiit>
							vi->drawLine(H(0), V(5), H(3), V(5), RGB565(0, 74, 241));
    13e8:	e0bfff17 	ldw	r2,-4(fp)
    13ec:	11000117 	ldw	r4,4(r2)
    13f0:	e0bffe17 	ldw	r2,-8(fp)
    13f4:	100a90fa 	slli	r5,r2,3
    13f8:	e0bffd17 	ldw	r2,-12(fp)
    13fc:	100490fa 	slli	r2,r2,3
    1400:	11800144 	addi	r6,r2,5
    1404:	e0bffe17 	ldw	r2,-8(fp)
    1408:	100490fa 	slli	r2,r2,3
    140c:	11c000c4 	addi	r7,r2,3
    1410:	e0bffd17 	ldw	r2,-12(fp)
    1414:	100490fa 	slli	r2,r2,3
    1418:	10800144 	addi	r2,r2,5
    141c:	00c09784 	movi	r3,606
    1420:	d8c00115 	stw	r3,4(sp)
    1424:	d8800015 	stw	r2,0(sp)
    1428:	0002a680 	call	2a68 <_ZN14VideoInterface8drawLineEiiiit>
							vi->drawPixel(H(4), V(4), RGB565(0, 74, 241));
    142c:	e0bfff17 	ldw	r2,-4(fp)
    1430:	10c00117 	ldw	r3,4(r2)
    1434:	e0bffe17 	ldw	r2,-8(fp)
    1438:	100490fa 	slli	r2,r2,3
    143c:	11000104 	addi	r4,r2,4
    1440:	e0bffd17 	ldw	r2,-12(fp)
    1444:	100490fa 	slli	r2,r2,3
    1448:	10800104 	addi	r2,r2,4
    144c:	01c09784 	movi	r7,606
    1450:	100d883a 	mov	r6,r2
    1454:	200b883a 	mov	r5,r4
    1458:	1809883a 	mov	r4,r3
    145c:	000283c0 	call	283c <_ZN14VideoInterface9drawPixelEiit>
							vi->drawLine(H(2), V(0), H(2), V(1), RGB565(0, 74, 241));
    1460:	e0bfff17 	ldw	r2,-4(fp)
    1464:	11000117 	ldw	r4,4(r2)
    1468:	e0bffe17 	ldw	r2,-8(fp)
    146c:	100490fa 	slli	r2,r2,3
    1470:	11400084 	addi	r5,r2,2
    1474:	e0bffd17 	ldw	r2,-12(fp)
    1478:	100c90fa 	slli	r6,r2,3
    147c:	e0bffe17 	ldw	r2,-8(fp)
    1480:	100490fa 	slli	r2,r2,3
    1484:	11c00084 	addi	r7,r2,2
    1488:	e0bffd17 	ldw	r2,-12(fp)
    148c:	100490fa 	slli	r2,r2,3
    1490:	10800044 	addi	r2,r2,1
    1494:	00c09784 	movi	r3,606
    1498:	d8c00115 	stw	r3,4(sp)
    149c:	d8800015 	stw	r2,0(sp)
    14a0:	0002a680 	call	2a68 <_ZN14VideoInterface8drawLineEiiiit>
							vi->drawLine(H(0), V(2), H(1), V(2), RGB565(0, 74, 241));
    14a4:	e0bfff17 	ldw	r2,-4(fp)
    14a8:	11000117 	ldw	r4,4(r2)
    14ac:	e0bffe17 	ldw	r2,-8(fp)
    14b0:	100a90fa 	slli	r5,r2,3
    14b4:	e0bffd17 	ldw	r2,-12(fp)
    14b8:	100490fa 	slli	r2,r2,3
    14bc:	11800084 	addi	r6,r2,2
    14c0:	e0bffe17 	ldw	r2,-8(fp)
    14c4:	100490fa 	slli	r2,r2,3
    14c8:	11c00044 	addi	r7,r2,1
    14cc:	e0bffd17 	ldw	r2,-12(fp)
    14d0:	100490fa 	slli	r2,r2,3
    14d4:	10800084 	addi	r2,r2,2
    14d8:	00c09784 	movi	r3,606
    14dc:	d8c00115 	stw	r3,4(sp)
    14e0:	d8800015 	stw	r2,0(sp)
    14e4:	0002a680 	call	2a68 <_ZN14VideoInterface8drawLineEiiiit>
							break;
    14e8:	00027f06 	br	1ee8 <_ZN4Game7drawMapEv+0x10d4>
						case ph:
							vi->drawLine(H(0), V(2), H(7), V(2), RGB565(0, 74, 241));
    14ec:	e0bfff17 	ldw	r2,-4(fp)
    14f0:	11000117 	ldw	r4,4(r2)
    14f4:	e0bffe17 	ldw	r2,-8(fp)
    14f8:	100a90fa 	slli	r5,r2,3
    14fc:	e0bffd17 	ldw	r2,-12(fp)
    1500:	100490fa 	slli	r2,r2,3
    1504:	11800084 	addi	r6,r2,2
    1508:	e0bffe17 	ldw	r2,-8(fp)
    150c:	100490fa 	slli	r2,r2,3
    1510:	11c001c4 	addi	r7,r2,7
    1514:	e0bffd17 	ldw	r2,-12(fp)
    1518:	100490fa 	slli	r2,r2,3
    151c:	10800084 	addi	r2,r2,2
    1520:	00c09784 	movi	r3,606
    1524:	d8c00115 	stw	r3,4(sp)
    1528:	d8800015 	stw	r2,0(sp)
    152c:	0002a680 	call	2a68 <_ZN14VideoInterface8drawLineEiiiit>
							vi->drawLine(H(0), V(5), H(7), V(5), RGB565(0, 74, 241));
    1530:	e0bfff17 	ldw	r2,-4(fp)
    1534:	11000117 	ldw	r4,4(r2)
    1538:	e0bffe17 	ldw	r2,-8(fp)
    153c:	100a90fa 	slli	r5,r2,3
    1540:	e0bffd17 	ldw	r2,-12(fp)
    1544:	100490fa 	slli	r2,r2,3
    1548:	11800144 	addi	r6,r2,5
    154c:	e0bffe17 	ldw	r2,-8(fp)
    1550:	100490fa 	slli	r2,r2,3
    1554:	11c001c4 	addi	r7,r2,7
    1558:	e0bffd17 	ldw	r2,-12(fp)
    155c:	100490fa 	slli	r2,r2,3
    1560:	10800144 	addi	r2,r2,5
    1564:	00c09784 	movi	r3,606
    1568:	d8c00115 	stw	r3,4(sp)
    156c:	d8800015 	stw	r2,0(sp)
    1570:	0002a680 	call	2a68 <_ZN14VideoInterface8drawLineEiiiit>
							break;
    1574:	00025c06 	br	1ee8 <_ZN4Game7drawMapEv+0x10d4>
						case pv:
							vi->drawLine(H(2), V(0), H(2), V(7), RGB565(0, 74, 241));
    1578:	e0bfff17 	ldw	r2,-4(fp)
    157c:	11000117 	ldw	r4,4(r2)
    1580:	e0bffe17 	ldw	r2,-8(fp)
    1584:	100490fa 	slli	r2,r2,3
    1588:	11400084 	addi	r5,r2,2
    158c:	e0bffd17 	ldw	r2,-12(fp)
    1590:	100c90fa 	slli	r6,r2,3
    1594:	e0bffe17 	ldw	r2,-8(fp)
    1598:	100490fa 	slli	r2,r2,3
    159c:	11c00084 	addi	r7,r2,2
    15a0:	e0bffd17 	ldw	r2,-12(fp)
    15a4:	100490fa 	slli	r2,r2,3
    15a8:	108001c4 	addi	r2,r2,7
    15ac:	00c09784 	movi	r3,606
    15b0:	d8c00115 	stw	r3,4(sp)
    15b4:	d8800015 	stw	r2,0(sp)
    15b8:	0002a680 	call	2a68 <_ZN14VideoInterface8drawLineEiiiit>
							vi->drawLine(H(5), V(0), H(5), V(7), RGB565(0, 74, 241));
    15bc:	e0bfff17 	ldw	r2,-4(fp)
    15c0:	11000117 	ldw	r4,4(r2)
    15c4:	e0bffe17 	ldw	r2,-8(fp)
    15c8:	100490fa 	slli	r2,r2,3
    15cc:	11400144 	addi	r5,r2,5
    15d0:	e0bffd17 	ldw	r2,-12(fp)
    15d4:	100c90fa 	slli	r6,r2,3
    15d8:	e0bffe17 	ldw	r2,-8(fp)
    15dc:	100490fa 	slli	r2,r2,3
    15e0:	11c00144 	addi	r7,r2,5
    15e4:	e0bffd17 	ldw	r2,-12(fp)
    15e8:	100490fa 	slli	r2,r2,3
    15ec:	108001c4 	addi	r2,r2,7
    15f0:	00c09784 	movi	r3,606
    15f4:	d8c00115 	stw	r3,4(sp)
    15f8:	d8800015 	stw	r2,0(sp)
    15fc:	0002a680 	call	2a68 <_ZN14VideoInterface8drawLineEiiiit>
							break;
    1600:	00023906 	br	1ee8 <_ZN4Game7drawMapEv+0x10d4>
						case tu:
							vi->drawLine(H(0), V(5), H(7), V(5), RGB565(0, 74, 241));
    1604:	e0bfff17 	ldw	r2,-4(fp)
    1608:	11000117 	ldw	r4,4(r2)
    160c:	e0bffe17 	ldw	r2,-8(fp)
    1610:	100a90fa 	slli	r5,r2,3
    1614:	e0bffd17 	ldw	r2,-12(fp)
    1618:	100490fa 	slli	r2,r2,3
    161c:	11800144 	addi	r6,r2,5
    1620:	e0bffe17 	ldw	r2,-8(fp)
    1624:	100490fa 	slli	r2,r2,3
    1628:	11c001c4 	addi	r7,r2,7
    162c:	e0bffd17 	ldw	r2,-12(fp)
    1630:	100490fa 	slli	r2,r2,3
    1634:	10800144 	addi	r2,r2,5
    1638:	00c09784 	movi	r3,606
    163c:	d8c00115 	stw	r3,4(sp)
    1640:	d8800015 	stw	r2,0(sp)
    1644:	0002a680 	call	2a68 <_ZN14VideoInterface8drawLineEiiiit>
							vi->drawLine(H(0), V(2), H(1), V(2), RGB565(0, 74, 241));
    1648:	e0bfff17 	ldw	r2,-4(fp)
    164c:	11000117 	ldw	r4,4(r2)
    1650:	e0bffe17 	ldw	r2,-8(fp)
    1654:	100a90fa 	slli	r5,r2,3
    1658:	e0bffd17 	ldw	r2,-12(fp)
    165c:	100490fa 	slli	r2,r2,3
    1660:	11800084 	addi	r6,r2,2
    1664:	e0bffe17 	ldw	r2,-8(fp)
    1668:	100490fa 	slli	r2,r2,3
    166c:	11c00044 	addi	r7,r2,1
    1670:	e0bffd17 	ldw	r2,-12(fp)
    1674:	100490fa 	slli	r2,r2,3
    1678:	10800084 	addi	r2,r2,2
    167c:	00c09784 	movi	r3,606
    1680:	d8c00115 	stw	r3,4(sp)
    1684:	d8800015 	stw	r2,0(sp)
    1688:	0002a680 	call	2a68 <_ZN14VideoInterface8drawLineEiiiit>
							vi->drawLine(H(6), V(2), H(7), V(2), RGB565(0, 74, 241));
    168c:	e0bfff17 	ldw	r2,-4(fp)
    1690:	11000117 	ldw	r4,4(r2)
    1694:	e0bffe17 	ldw	r2,-8(fp)
    1698:	100490fa 	slli	r2,r2,3
    169c:	11400184 	addi	r5,r2,6
    16a0:	e0bffd17 	ldw	r2,-12(fp)
    16a4:	100490fa 	slli	r2,r2,3
    16a8:	11800084 	addi	r6,r2,2
    16ac:	e0bffe17 	ldw	r2,-8(fp)
    16b0:	100490fa 	slli	r2,r2,3
    16b4:	11c001c4 	addi	r7,r2,7
    16b8:	e0bffd17 	ldw	r2,-12(fp)
    16bc:	100490fa 	slli	r2,r2,3
    16c0:	10800084 	addi	r2,r2,2
    16c4:	00c09784 	movi	r3,606
    16c8:	d8c00115 	stw	r3,4(sp)
    16cc:	d8800015 	stw	r2,0(sp)
    16d0:	0002a680 	call	2a68 <_ZN14VideoInterface8drawLineEiiiit>
							vi->drawLine(H(2), V(0), H(2), V(1), RGB565(0, 74, 241));
    16d4:	e0bfff17 	ldw	r2,-4(fp)
    16d8:	11000117 	ldw	r4,4(r2)
    16dc:	e0bffe17 	ldw	r2,-8(fp)
    16e0:	100490fa 	slli	r2,r2,3
    16e4:	11400084 	addi	r5,r2,2
    16e8:	e0bffd17 	ldw	r2,-12(fp)
    16ec:	100c90fa 	slli	r6,r2,3
    16f0:	e0bffe17 	ldw	r2,-8(fp)
    16f4:	100490fa 	slli	r2,r2,3
    16f8:	11c00084 	addi	r7,r2,2
    16fc:	e0bffd17 	ldw	r2,-12(fp)
    1700:	100490fa 	slli	r2,r2,3
    1704:	10800044 	addi	r2,r2,1
    1708:	00c09784 	movi	r3,606
    170c:	d8c00115 	stw	r3,4(sp)
    1710:	d8800015 	stw	r2,0(sp)
    1714:	0002a680 	call	2a68 <_ZN14VideoInterface8drawLineEiiiit>
							vi->drawLine(H(5), V(0), H(5), V(1), RGB565(0, 74, 241));
    1718:	e0bfff17 	ldw	r2,-4(fp)
    171c:	11000117 	ldw	r4,4(r2)
    1720:	e0bffe17 	ldw	r2,-8(fp)
    1724:	100490fa 	slli	r2,r2,3
    1728:	11400144 	addi	r5,r2,5
    172c:	e0bffd17 	ldw	r2,-12(fp)
    1730:	100c90fa 	slli	r6,r2,3
    1734:	e0bffe17 	ldw	r2,-8(fp)
    1738:	100490fa 	slli	r2,r2,3
    173c:	11c00144 	addi	r7,r2,5
    1740:	e0bffd17 	ldw	r2,-12(fp)
    1744:	100490fa 	slli	r2,r2,3
    1748:	10800044 	addi	r2,r2,1
    174c:	00c09784 	movi	r3,606
    1750:	d8c00115 	stw	r3,4(sp)
    1754:	d8800015 	stw	r2,0(sp)
    1758:	0002a680 	call	2a68 <_ZN14VideoInterface8drawLineEiiiit>
							break;
    175c:	0001e206 	br	1ee8 <_ZN4Game7drawMapEv+0x10d4>
						case td:
							vi->drawLine(H(0), V(2), H(7), V(2), RGB565(0, 74, 241));
    1760:	e0bfff17 	ldw	r2,-4(fp)
    1764:	11000117 	ldw	r4,4(r2)
    1768:	e0bffe17 	ldw	r2,-8(fp)
    176c:	100a90fa 	slli	r5,r2,3
    1770:	e0bffd17 	ldw	r2,-12(fp)
    1774:	100490fa 	slli	r2,r2,3
    1778:	11800084 	addi	r6,r2,2
    177c:	e0bffe17 	ldw	r2,-8(fp)
    1780:	100490fa 	slli	r2,r2,3
    1784:	11c001c4 	addi	r7,r2,7
    1788:	e0bffd17 	ldw	r2,-12(fp)
    178c:	100490fa 	slli	r2,r2,3
    1790:	10800084 	addi	r2,r2,2
    1794:	00c09784 	movi	r3,606
    1798:	d8c00115 	stw	r3,4(sp)
    179c:	d8800015 	stw	r2,0(sp)
    17a0:	0002a680 	call	2a68 <_ZN14VideoInterface8drawLineEiiiit>
							vi->drawLine(H(0), V(5), H(1), V(5), RGB565(0, 74, 241));
    17a4:	e0bfff17 	ldw	r2,-4(fp)
    17a8:	11000117 	ldw	r4,4(r2)
    17ac:	e0bffe17 	ldw	r2,-8(fp)
    17b0:	100a90fa 	slli	r5,r2,3
    17b4:	e0bffd17 	ldw	r2,-12(fp)
    17b8:	100490fa 	slli	r2,r2,3
    17bc:	11800144 	addi	r6,r2,5
    17c0:	e0bffe17 	ldw	r2,-8(fp)
    17c4:	100490fa 	slli	r2,r2,3
    17c8:	11c00044 	addi	r7,r2,1
    17cc:	e0bffd17 	ldw	r2,-12(fp)
    17d0:	100490fa 	slli	r2,r2,3
    17d4:	10800144 	addi	r2,r2,5
    17d8:	00c09784 	movi	r3,606
    17dc:	d8c00115 	stw	r3,4(sp)
    17e0:	d8800015 	stw	r2,0(sp)
    17e4:	0002a680 	call	2a68 <_ZN14VideoInterface8drawLineEiiiit>
							vi->drawLine(H(6), V(5), H(7), V(5), RGB565(0, 74, 241));
    17e8:	e0bfff17 	ldw	r2,-4(fp)
    17ec:	11000117 	ldw	r4,4(r2)
    17f0:	e0bffe17 	ldw	r2,-8(fp)
    17f4:	100490fa 	slli	r2,r2,3
    17f8:	11400184 	addi	r5,r2,6
    17fc:	e0bffd17 	ldw	r2,-12(fp)
    1800:	100490fa 	slli	r2,r2,3
    1804:	11800144 	addi	r6,r2,5
    1808:	e0bffe17 	ldw	r2,-8(fp)
    180c:	100490fa 	slli	r2,r2,3
    1810:	11c001c4 	addi	r7,r2,7
    1814:	e0bffd17 	ldw	r2,-12(fp)
    1818:	100490fa 	slli	r2,r2,3
    181c:	10800144 	addi	r2,r2,5
    1820:	00c09784 	movi	r3,606
    1824:	d8c00115 	stw	r3,4(sp)
    1828:	d8800015 	stw	r2,0(sp)
    182c:	0002a680 	call	2a68 <_ZN14VideoInterface8drawLineEiiiit>
							vi->drawLine(H(2), V(6), H(2), V(7), RGB565(0, 74, 241));
    1830:	e0bfff17 	ldw	r2,-4(fp)
    1834:	11000117 	ldw	r4,4(r2)
    1838:	e0bffe17 	ldw	r2,-8(fp)
    183c:	100490fa 	slli	r2,r2,3
    1840:	11400084 	addi	r5,r2,2
    1844:	e0bffd17 	ldw	r2,-12(fp)
    1848:	100490fa 	slli	r2,r2,3
    184c:	11800184 	addi	r6,r2,6
    1850:	e0bffe17 	ldw	r2,-8(fp)
    1854:	100490fa 	slli	r2,r2,3
    1858:	11c00084 	addi	r7,r2,2
    185c:	e0bffd17 	ldw	r2,-12(fp)
    1860:	100490fa 	slli	r2,r2,3
    1864:	108001c4 	addi	r2,r2,7
    1868:	00c09784 	movi	r3,606
    186c:	d8c00115 	stw	r3,4(sp)
    1870:	d8800015 	stw	r2,0(sp)
    1874:	0002a680 	call	2a68 <_ZN14VideoInterface8drawLineEiiiit>
							vi->drawLine(H(5), V(6), H(5), V(7), RGB565(0, 74, 241));
    1878:	e0bfff17 	ldw	r2,-4(fp)
    187c:	11000117 	ldw	r4,4(r2)
    1880:	e0bffe17 	ldw	r2,-8(fp)
    1884:	100490fa 	slli	r2,r2,3
    1888:	11400144 	addi	r5,r2,5
    188c:	e0bffd17 	ldw	r2,-12(fp)
    1890:	100490fa 	slli	r2,r2,3
    1894:	11800184 	addi	r6,r2,6
    1898:	e0bffe17 	ldw	r2,-8(fp)
    189c:	100490fa 	slli	r2,r2,3
    18a0:	11c00144 	addi	r7,r2,5
    18a4:	e0bffd17 	ldw	r2,-12(fp)
    18a8:	100490fa 	slli	r2,r2,3
    18ac:	108001c4 	addi	r2,r2,7
    18b0:	00c09784 	movi	r3,606
    18b4:	d8c00115 	stw	r3,4(sp)
    18b8:	d8800015 	stw	r2,0(sp)
    18bc:	0002a680 	call	2a68 <_ZN14VideoInterface8drawLineEiiiit>
							break;
    18c0:	00018906 	br	1ee8 <_ZN4Game7drawMapEv+0x10d4>
						case tl:
							vi->drawLine(H(5), V(0), H(5), V(7), RGB565(0, 74, 241));
    18c4:	e0bfff17 	ldw	r2,-4(fp)
    18c8:	11000117 	ldw	r4,4(r2)
    18cc:	e0bffe17 	ldw	r2,-8(fp)
    18d0:	100490fa 	slli	r2,r2,3
    18d4:	11400144 	addi	r5,r2,5
    18d8:	e0bffd17 	ldw	r2,-12(fp)
    18dc:	100c90fa 	slli	r6,r2,3
    18e0:	e0bffe17 	ldw	r2,-8(fp)
    18e4:	100490fa 	slli	r2,r2,3
    18e8:	11c00144 	addi	r7,r2,5
    18ec:	e0bffd17 	ldw	r2,-12(fp)
    18f0:	100490fa 	slli	r2,r2,3
    18f4:	108001c4 	addi	r2,r2,7
    18f8:	00c09784 	movi	r3,606
    18fc:	d8c00115 	stw	r3,4(sp)
    1900:	d8800015 	stw	r2,0(sp)
    1904:	0002a680 	call	2a68 <_ZN14VideoInterface8drawLineEiiiit>
							vi->drawLine(H(2), V(0), H(2), V(1), RGB565(0, 74, 241));
    1908:	e0bfff17 	ldw	r2,-4(fp)
    190c:	11000117 	ldw	r4,4(r2)
    1910:	e0bffe17 	ldw	r2,-8(fp)
    1914:	100490fa 	slli	r2,r2,3
    1918:	11400084 	addi	r5,r2,2
    191c:	e0bffd17 	ldw	r2,-12(fp)
    1920:	100c90fa 	slli	r6,r2,3
    1924:	e0bffe17 	ldw	r2,-8(fp)
    1928:	100490fa 	slli	r2,r2,3
    192c:	11c00084 	addi	r7,r2,2
    1930:	e0bffd17 	ldw	r2,-12(fp)
    1934:	100490fa 	slli	r2,r2,3
    1938:	10800044 	addi	r2,r2,1
    193c:	00c09784 	movi	r3,606
    1940:	d8c00115 	stw	r3,4(sp)
    1944:	d8800015 	stw	r2,0(sp)
    1948:	0002a680 	call	2a68 <_ZN14VideoInterface8drawLineEiiiit>
							vi->drawLine(H(0), V(2), H(1), V(2), RGB565(0, 74, 241));
    194c:	e0bfff17 	ldw	r2,-4(fp)
    1950:	11000117 	ldw	r4,4(r2)
    1954:	e0bffe17 	ldw	r2,-8(fp)
    1958:	100a90fa 	slli	r5,r2,3
    195c:	e0bffd17 	ldw	r2,-12(fp)
    1960:	100490fa 	slli	r2,r2,3
    1964:	11800084 	addi	r6,r2,2
    1968:	e0bffe17 	ldw	r2,-8(fp)
    196c:	100490fa 	slli	r2,r2,3
    1970:	11c00044 	addi	r7,r2,1
    1974:	e0bffd17 	ldw	r2,-12(fp)
    1978:	100490fa 	slli	r2,r2,3
    197c:	10800084 	addi	r2,r2,2
    1980:	00c09784 	movi	r3,606
    1984:	d8c00115 	stw	r3,4(sp)
    1988:	d8800015 	stw	r2,0(sp)
    198c:	0002a680 	call	2a68 <_ZN14VideoInterface8drawLineEiiiit>
							vi->drawLine(H(0), V(5), H(1), V(5), RGB565(0, 74, 241));
    1990:	e0bfff17 	ldw	r2,-4(fp)
    1994:	11000117 	ldw	r4,4(r2)
    1998:	e0bffe17 	ldw	r2,-8(fp)
    199c:	100a90fa 	slli	r5,r2,3
    19a0:	e0bffd17 	ldw	r2,-12(fp)
    19a4:	100490fa 	slli	r2,r2,3
    19a8:	11800144 	addi	r6,r2,5
    19ac:	e0bffe17 	ldw	r2,-8(fp)
    19b0:	100490fa 	slli	r2,r2,3
    19b4:	11c00044 	addi	r7,r2,1
    19b8:	e0bffd17 	ldw	r2,-12(fp)
    19bc:	100490fa 	slli	r2,r2,3
    19c0:	10800144 	addi	r2,r2,5
    19c4:	00c09784 	movi	r3,606
    19c8:	d8c00115 	stw	r3,4(sp)
    19cc:	d8800015 	stw	r2,0(sp)
    19d0:	0002a680 	call	2a68 <_ZN14VideoInterface8drawLineEiiiit>
							vi->drawLine(H(2), V(6), H(2), V(7), RGB565(0, 74, 241));
    19d4:	e0bfff17 	ldw	r2,-4(fp)
    19d8:	11000117 	ldw	r4,4(r2)
    19dc:	e0bffe17 	ldw	r2,-8(fp)
    19e0:	100490fa 	slli	r2,r2,3
    19e4:	11400084 	addi	r5,r2,2
    19e8:	e0bffd17 	ldw	r2,-12(fp)
    19ec:	100490fa 	slli	r2,r2,3
    19f0:	11800184 	addi	r6,r2,6
    19f4:	e0bffe17 	ldw	r2,-8(fp)
    19f8:	100490fa 	slli	r2,r2,3
    19fc:	11c00084 	addi	r7,r2,2
    1a00:	e0bffd17 	ldw	r2,-12(fp)
    1a04:	100490fa 	slli	r2,r2,3
    1a08:	108001c4 	addi	r2,r2,7
    1a0c:	00c09784 	movi	r3,606
    1a10:	d8c00115 	stw	r3,4(sp)
    1a14:	d8800015 	stw	r2,0(sp)
    1a18:	0002a680 	call	2a68 <_ZN14VideoInterface8drawLineEiiiit>
							break;
    1a1c:	00013206 	br	1ee8 <_ZN4Game7drawMapEv+0x10d4>
						case tr:
							vi->drawLine(H(2), V(0), H(2), V(7), RGB565(0, 74, 241));
    1a20:	e0bfff17 	ldw	r2,-4(fp)
    1a24:	11000117 	ldw	r4,4(r2)
    1a28:	e0bffe17 	ldw	r2,-8(fp)
    1a2c:	100490fa 	slli	r2,r2,3
    1a30:	11400084 	addi	r5,r2,2
    1a34:	e0bffd17 	ldw	r2,-12(fp)
    1a38:	100c90fa 	slli	r6,r2,3
    1a3c:	e0bffe17 	ldw	r2,-8(fp)
    1a40:	100490fa 	slli	r2,r2,3
    1a44:	11c00084 	addi	r7,r2,2
    1a48:	e0bffd17 	ldw	r2,-12(fp)
    1a4c:	100490fa 	slli	r2,r2,3
    1a50:	108001c4 	addi	r2,r2,7
    1a54:	00c09784 	movi	r3,606
    1a58:	d8c00115 	stw	r3,4(sp)
    1a5c:	d8800015 	stw	r2,0(sp)
    1a60:	0002a680 	call	2a68 <_ZN14VideoInterface8drawLineEiiiit>
							vi->drawLine(H(5), V(0), H(5), V(1), RGB565(0, 74, 241));
    1a64:	e0bfff17 	ldw	r2,-4(fp)
    1a68:	11000117 	ldw	r4,4(r2)
    1a6c:	e0bffe17 	ldw	r2,-8(fp)
    1a70:	100490fa 	slli	r2,r2,3
    1a74:	11400144 	addi	r5,r2,5
    1a78:	e0bffd17 	ldw	r2,-12(fp)
    1a7c:	100c90fa 	slli	r6,r2,3
    1a80:	e0bffe17 	ldw	r2,-8(fp)
    1a84:	100490fa 	slli	r2,r2,3
    1a88:	11c00144 	addi	r7,r2,5
    1a8c:	e0bffd17 	ldw	r2,-12(fp)
    1a90:	100490fa 	slli	r2,r2,3
    1a94:	10800044 	addi	r2,r2,1
    1a98:	00c09784 	movi	r3,606
    1a9c:	d8c00115 	stw	r3,4(sp)
    1aa0:	d8800015 	stw	r2,0(sp)
    1aa4:	0002a680 	call	2a68 <_ZN14VideoInterface8drawLineEiiiit>
							vi->drawLine(H(6), V(2), H(7), V(2), RGB565(0, 74, 241));
    1aa8:	e0bfff17 	ldw	r2,-4(fp)
    1aac:	11000117 	ldw	r4,4(r2)
    1ab0:	e0bffe17 	ldw	r2,-8(fp)
    1ab4:	100490fa 	slli	r2,r2,3
    1ab8:	11400184 	addi	r5,r2,6
    1abc:	e0bffd17 	ldw	r2,-12(fp)
    1ac0:	100490fa 	slli	r2,r2,3
    1ac4:	11800084 	addi	r6,r2,2
    1ac8:	e0bffe17 	ldw	r2,-8(fp)
    1acc:	100490fa 	slli	r2,r2,3
    1ad0:	11c001c4 	addi	r7,r2,7
    1ad4:	e0bffd17 	ldw	r2,-12(fp)
    1ad8:	100490fa 	slli	r2,r2,3
    1adc:	10800084 	addi	r2,r2,2
    1ae0:	00c09784 	movi	r3,606
    1ae4:	d8c00115 	stw	r3,4(sp)
    1ae8:	d8800015 	stw	r2,0(sp)
    1aec:	0002a680 	call	2a68 <_ZN14VideoInterface8drawLineEiiiit>
							vi->drawLine(H(6), V(5), H(7), V(5), RGB565(0, 74, 241));
    1af0:	e0bfff17 	ldw	r2,-4(fp)
    1af4:	11000117 	ldw	r4,4(r2)
    1af8:	e0bffe17 	ldw	r2,-8(fp)
    1afc:	100490fa 	slli	r2,r2,3
    1b00:	11400184 	addi	r5,r2,6
    1b04:	e0bffd17 	ldw	r2,-12(fp)
    1b08:	100490fa 	slli	r2,r2,3
    1b0c:	11800144 	addi	r6,r2,5
    1b10:	e0bffe17 	ldw	r2,-8(fp)
    1b14:	100490fa 	slli	r2,r2,3
    1b18:	11c001c4 	addi	r7,r2,7
    1b1c:	e0bffd17 	ldw	r2,-12(fp)
    1b20:	100490fa 	slli	r2,r2,3
    1b24:	10800144 	addi	r2,r2,5
    1b28:	00c09784 	movi	r3,606
    1b2c:	d8c00115 	stw	r3,4(sp)
    1b30:	d8800015 	stw	r2,0(sp)
    1b34:	0002a680 	call	2a68 <_ZN14VideoInterface8drawLineEiiiit>
							vi->drawLine(H(5), V(6), H(5), V(7), RGB565(0, 74, 241));
    1b38:	e0bfff17 	ldw	r2,-4(fp)
    1b3c:	11000117 	ldw	r4,4(r2)
    1b40:	e0bffe17 	ldw	r2,-8(fp)
    1b44:	100490fa 	slli	r2,r2,3
    1b48:	11400144 	addi	r5,r2,5
    1b4c:	e0bffd17 	ldw	r2,-12(fp)
    1b50:	100490fa 	slli	r2,r2,3
    1b54:	11800184 	addi	r6,r2,6
    1b58:	e0bffe17 	ldw	r2,-8(fp)
    1b5c:	100490fa 	slli	r2,r2,3
    1b60:	11c00144 	addi	r7,r2,5
    1b64:	e0bffd17 	ldw	r2,-12(fp)
    1b68:	100490fa 	slli	r2,r2,3
    1b6c:	108001c4 	addi	r2,r2,7
    1b70:	00c09784 	movi	r3,606
    1b74:	d8c00115 	stw	r3,4(sp)
    1b78:	d8800015 	stw	r2,0(sp)
    1b7c:	0002a680 	call	2a68 <_ZN14VideoInterface8drawLineEiiiit>
							break;
    1b80:	0000d906 	br	1ee8 <_ZN4Game7drawMapEv+0x10d4>
						case cu:
							vi->drawLine(H(2), V(0), H(2), V(3), RGB565(0, 74, 241));
    1b84:	e0bfff17 	ldw	r2,-4(fp)
    1b88:	11000117 	ldw	r4,4(r2)
    1b8c:	e0bffe17 	ldw	r2,-8(fp)
    1b90:	100490fa 	slli	r2,r2,3
    1b94:	11400084 	addi	r5,r2,2
    1b98:	e0bffd17 	ldw	r2,-12(fp)
    1b9c:	100c90fa 	slli	r6,r2,3
    1ba0:	e0bffe17 	ldw	r2,-8(fp)
    1ba4:	100490fa 	slli	r2,r2,3
    1ba8:	11c00084 	addi	r7,r2,2
    1bac:	e0bffd17 	ldw	r2,-12(fp)
    1bb0:	100490fa 	slli	r2,r2,3
    1bb4:	108000c4 	addi	r2,r2,3
    1bb8:	00c09784 	movi	r3,606
    1bbc:	d8c00115 	stw	r3,4(sp)
    1bc0:	d8800015 	stw	r2,0(sp)
    1bc4:	0002a680 	call	2a68 <_ZN14VideoInterface8drawLineEiiiit>
							vi->drawLine(H(5), V(0), H(5), V(3), RGB565(0, 74, 241));
    1bc8:	e0bfff17 	ldw	r2,-4(fp)
    1bcc:	11000117 	ldw	r4,4(r2)
    1bd0:	e0bffe17 	ldw	r2,-8(fp)
    1bd4:	100490fa 	slli	r2,r2,3
    1bd8:	11400144 	addi	r5,r2,5
    1bdc:	e0bffd17 	ldw	r2,-12(fp)
    1be0:	100c90fa 	slli	r6,r2,3
    1be4:	e0bffe17 	ldw	r2,-8(fp)
    1be8:	100490fa 	slli	r2,r2,3
    1bec:	11c00144 	addi	r7,r2,5
    1bf0:	e0bffd17 	ldw	r2,-12(fp)
    1bf4:	100490fa 	slli	r2,r2,3
    1bf8:	108000c4 	addi	r2,r2,3
    1bfc:	00c09784 	movi	r3,606
    1c00:	d8c00115 	stw	r3,4(sp)
    1c04:	d8800015 	stw	r2,0(sp)
    1c08:	0002a680 	call	2a68 <_ZN14VideoInterface8drawLineEiiiit>
							vi->drawLine(H(3), V(4), H(4), V(4), RGB565(0, 74, 241));
    1c0c:	e0bfff17 	ldw	r2,-4(fp)
    1c10:	11000117 	ldw	r4,4(r2)
    1c14:	e0bffe17 	ldw	r2,-8(fp)
    1c18:	100490fa 	slli	r2,r2,3
    1c1c:	114000c4 	addi	r5,r2,3
    1c20:	e0bffd17 	ldw	r2,-12(fp)
    1c24:	100490fa 	slli	r2,r2,3
    1c28:	11800104 	addi	r6,r2,4
    1c2c:	e0bffe17 	ldw	r2,-8(fp)
    1c30:	100490fa 	slli	r2,r2,3
    1c34:	11c00104 	addi	r7,r2,4
    1c38:	e0bffd17 	ldw	r2,-12(fp)
    1c3c:	100490fa 	slli	r2,r2,3
    1c40:	10800104 	addi	r2,r2,4
    1c44:	00c09784 	movi	r3,606
    1c48:	d8c00115 	stw	r3,4(sp)
    1c4c:	d8800015 	stw	r2,0(sp)
    1c50:	0002a680 	call	2a68 <_ZN14VideoInterface8drawLineEiiiit>
							break;
    1c54:	0000a406 	br	1ee8 <_ZN4Game7drawMapEv+0x10d4>
						case cd:
							vi->drawLine(H(2), V(4), H(2), V(7), RGB565(0, 74, 241));
    1c58:	e0bfff17 	ldw	r2,-4(fp)
    1c5c:	11000117 	ldw	r4,4(r2)
    1c60:	e0bffe17 	ldw	r2,-8(fp)
    1c64:	100490fa 	slli	r2,r2,3
    1c68:	11400084 	addi	r5,r2,2
    1c6c:	e0bffd17 	ldw	r2,-12(fp)
    1c70:	100490fa 	slli	r2,r2,3
    1c74:	11800104 	addi	r6,r2,4
    1c78:	e0bffe17 	ldw	r2,-8(fp)
    1c7c:	100490fa 	slli	r2,r2,3
    1c80:	11c00084 	addi	r7,r2,2
    1c84:	e0bffd17 	ldw	r2,-12(fp)
    1c88:	100490fa 	slli	r2,r2,3
    1c8c:	108001c4 	addi	r2,r2,7
    1c90:	00c09784 	movi	r3,606
    1c94:	d8c00115 	stw	r3,4(sp)
    1c98:	d8800015 	stw	r2,0(sp)
    1c9c:	0002a680 	call	2a68 <_ZN14VideoInterface8drawLineEiiiit>
							vi->drawLine(H(5), V(4), H(5), V(7), RGB565(0, 74, 241));
    1ca0:	e0bfff17 	ldw	r2,-4(fp)
    1ca4:	11000117 	ldw	r4,4(r2)
    1ca8:	e0bffe17 	ldw	r2,-8(fp)
    1cac:	100490fa 	slli	r2,r2,3
    1cb0:	11400144 	addi	r5,r2,5
    1cb4:	e0bffd17 	ldw	r2,-12(fp)
    1cb8:	100490fa 	slli	r2,r2,3
    1cbc:	11800104 	addi	r6,r2,4
    1cc0:	e0bffe17 	ldw	r2,-8(fp)
    1cc4:	100490fa 	slli	r2,r2,3
    1cc8:	11c00144 	addi	r7,r2,5
    1ccc:	e0bffd17 	ldw	r2,-12(fp)
    1cd0:	100490fa 	slli	r2,r2,3
    1cd4:	108001c4 	addi	r2,r2,7
    1cd8:	00c09784 	movi	r3,606
    1cdc:	d8c00115 	stw	r3,4(sp)
    1ce0:	d8800015 	stw	r2,0(sp)
    1ce4:	0002a680 	call	2a68 <_ZN14VideoInterface8drawLineEiiiit>
							vi->drawLine(H(3), V(3), H(4), V(3), RGB565(0, 74, 241));
    1ce8:	e0bfff17 	ldw	r2,-4(fp)
    1cec:	11000117 	ldw	r4,4(r2)
    1cf0:	e0bffe17 	ldw	r2,-8(fp)
    1cf4:	100490fa 	slli	r2,r2,3
    1cf8:	114000c4 	addi	r5,r2,3
    1cfc:	e0bffd17 	ldw	r2,-12(fp)
    1d00:	100490fa 	slli	r2,r2,3
    1d04:	118000c4 	addi	r6,r2,3
    1d08:	e0bffe17 	ldw	r2,-8(fp)
    1d0c:	100490fa 	slli	r2,r2,3
    1d10:	11c00104 	addi	r7,r2,4
    1d14:	e0bffd17 	ldw	r2,-12(fp)
    1d18:	100490fa 	slli	r2,r2,3
    1d1c:	108000c4 	addi	r2,r2,3
    1d20:	00c09784 	movi	r3,606
    1d24:	d8c00115 	stw	r3,4(sp)
    1d28:	d8800015 	stw	r2,0(sp)
    1d2c:	0002a680 	call	2a68 <_ZN14VideoInterface8drawLineEiiiit>
							break;
    1d30:	00006d06 	br	1ee8 <_ZN4Game7drawMapEv+0x10d4>
						case cl:
							vi->drawLine(H(0), V(2), H(3), V(2), RGB565(0, 74, 241));
    1d34:	e0bfff17 	ldw	r2,-4(fp)
    1d38:	11000117 	ldw	r4,4(r2)
    1d3c:	e0bffe17 	ldw	r2,-8(fp)
    1d40:	100a90fa 	slli	r5,r2,3
    1d44:	e0bffd17 	ldw	r2,-12(fp)
    1d48:	100490fa 	slli	r2,r2,3
    1d4c:	11800084 	addi	r6,r2,2
    1d50:	e0bffe17 	ldw	r2,-8(fp)
    1d54:	100490fa 	slli	r2,r2,3
    1d58:	11c000c4 	addi	r7,r2,3
    1d5c:	e0bffd17 	ldw	r2,-12(fp)
    1d60:	100490fa 	slli	r2,r2,3
    1d64:	10800084 	addi	r2,r2,2
    1d68:	00c09784 	movi	r3,606
    1d6c:	d8c00115 	stw	r3,4(sp)
    1d70:	d8800015 	stw	r2,0(sp)
    1d74:	0002a680 	call	2a68 <_ZN14VideoInterface8drawLineEiiiit>
							vi->drawLine(H(0), V(5), H(3), V(5), RGB565(0, 74, 241));
    1d78:	e0bfff17 	ldw	r2,-4(fp)
    1d7c:	11000117 	ldw	r4,4(r2)
    1d80:	e0bffe17 	ldw	r2,-8(fp)
    1d84:	100a90fa 	slli	r5,r2,3
    1d88:	e0bffd17 	ldw	r2,-12(fp)
    1d8c:	100490fa 	slli	r2,r2,3
    1d90:	11800144 	addi	r6,r2,5
    1d94:	e0bffe17 	ldw	r2,-8(fp)
    1d98:	100490fa 	slli	r2,r2,3
    1d9c:	11c000c4 	addi	r7,r2,3
    1da0:	e0bffd17 	ldw	r2,-12(fp)
    1da4:	100490fa 	slli	r2,r2,3
    1da8:	10800144 	addi	r2,r2,5
    1dac:	00c09784 	movi	r3,606
    1db0:	d8c00115 	stw	r3,4(sp)
    1db4:	d8800015 	stw	r2,0(sp)
    1db8:	0002a680 	call	2a68 <_ZN14VideoInterface8drawLineEiiiit>
							vi->drawLine(H(4), V(3), H(4), V(4), RGB565(0, 74, 241));
    1dbc:	e0bfff17 	ldw	r2,-4(fp)
    1dc0:	11000117 	ldw	r4,4(r2)
    1dc4:	e0bffe17 	ldw	r2,-8(fp)
    1dc8:	100490fa 	slli	r2,r2,3
    1dcc:	11400104 	addi	r5,r2,4
    1dd0:	e0bffd17 	ldw	r2,-12(fp)
    1dd4:	100490fa 	slli	r2,r2,3
    1dd8:	118000c4 	addi	r6,r2,3
    1ddc:	e0bffe17 	ldw	r2,-8(fp)
    1de0:	100490fa 	slli	r2,r2,3
    1de4:	11c00104 	addi	r7,r2,4
    1de8:	e0bffd17 	ldw	r2,-12(fp)
    1dec:	100490fa 	slli	r2,r2,3
    1df0:	10800104 	addi	r2,r2,4
    1df4:	00c09784 	movi	r3,606
    1df8:	d8c00115 	stw	r3,4(sp)
    1dfc:	d8800015 	stw	r2,0(sp)
    1e00:	0002a680 	call	2a68 <_ZN14VideoInterface8drawLineEiiiit>
							break;
    1e04:	00003806 	br	1ee8 <_ZN4Game7drawMapEv+0x10d4>
						case cr:
							vi->drawLine(H(4), V(2), H(7), V(2), RGB565(0, 74, 241));
    1e08:	e0bfff17 	ldw	r2,-4(fp)
    1e0c:	11000117 	ldw	r4,4(r2)
    1e10:	e0bffe17 	ldw	r2,-8(fp)
    1e14:	100490fa 	slli	r2,r2,3
    1e18:	11400104 	addi	r5,r2,4
    1e1c:	e0bffd17 	ldw	r2,-12(fp)
    1e20:	100490fa 	slli	r2,r2,3
    1e24:	11800084 	addi	r6,r2,2
    1e28:	e0bffe17 	ldw	r2,-8(fp)
    1e2c:	100490fa 	slli	r2,r2,3
    1e30:	11c001c4 	addi	r7,r2,7
    1e34:	e0bffd17 	ldw	r2,-12(fp)
    1e38:	100490fa 	slli	r2,r2,3
    1e3c:	10800084 	addi	r2,r2,2
    1e40:	00c09784 	movi	r3,606
    1e44:	d8c00115 	stw	r3,4(sp)
    1e48:	d8800015 	stw	r2,0(sp)
    1e4c:	0002a680 	call	2a68 <_ZN14VideoInterface8drawLineEiiiit>
							vi->drawLine(H(4), V(5), H(7), V(5), RGB565(0, 74, 241));
    1e50:	e0bfff17 	ldw	r2,-4(fp)
    1e54:	11000117 	ldw	r4,4(r2)
    1e58:	e0bffe17 	ldw	r2,-8(fp)
    1e5c:	100490fa 	slli	r2,r2,3
    1e60:	11400104 	addi	r5,r2,4
    1e64:	e0bffd17 	ldw	r2,-12(fp)
    1e68:	100490fa 	slli	r2,r2,3
    1e6c:	11800144 	addi	r6,r2,5
    1e70:	e0bffe17 	ldw	r2,-8(fp)
    1e74:	100490fa 	slli	r2,r2,3
    1e78:	11c001c4 	addi	r7,r2,7
    1e7c:	e0bffd17 	ldw	r2,-12(fp)
    1e80:	100490fa 	slli	r2,r2,3
    1e84:	10800144 	addi	r2,r2,5
    1e88:	00c09784 	movi	r3,606
    1e8c:	d8c00115 	stw	r3,4(sp)
    1e90:	d8800015 	stw	r2,0(sp)
    1e94:	0002a680 	call	2a68 <_ZN14VideoInterface8drawLineEiiiit>
							vi->drawLine(H(3), V(3), H(3), V(4), RGB565(0, 74, 241));
    1e98:	e0bfff17 	ldw	r2,-4(fp)
    1e9c:	11000117 	ldw	r4,4(r2)
    1ea0:	e0bffe17 	ldw	r2,-8(fp)
    1ea4:	100490fa 	slli	r2,r2,3
    1ea8:	114000c4 	addi	r5,r2,3
    1eac:	e0bffd17 	ldw	r2,-12(fp)
    1eb0:	100490fa 	slli	r2,r2,3
    1eb4:	118000c4 	addi	r6,r2,3
    1eb8:	e0bffe17 	ldw	r2,-8(fp)
    1ebc:	100490fa 	slli	r2,r2,3
    1ec0:	11c000c4 	addi	r7,r2,3
    1ec4:	e0bffd17 	ldw	r2,-12(fp)
    1ec8:	100490fa 	slli	r2,r2,3
    1ecc:	10800104 	addi	r2,r2,4
    1ed0:	00c09784 	movi	r3,606
    1ed4:	d8c00115 	stw	r3,4(sp)
    1ed8:	d8800015 	stw	r2,0(sp)
    1edc:	0002a680 	call	2a68 <_ZN14VideoInterface8drawLineEiiiit>
							break;
    1ee0:	00000106 	br	1ee8 <_ZN4Game7drawMapEv+0x10d4>
						default: break;
    1ee4:	0001883a 	nop
	}
};

void Game::drawMap(){
	for(int v = 0; v < 27; v++){
			for(int h = 0; h < 21; h++){
    1ee8:	e0bffe17 	ldw	r2,-8(fp)
    1eec:	10800044 	addi	r2,r2,1
    1ef0:	e0bffe15 	stw	r2,-8(fp)
    1ef4:	003bd106 	br	e3c <__alt_mem_VGA_Subsystem_Char_Buf_Subsystem_Onchip_SRAM+0xf7000e3c>
			break;
	}
};

void Game::drawMap(){
	for(int v = 0; v < 27; v++){
    1ef8:	e0bffd17 	ldw	r2,-12(fp)
    1efc:	10800044 	addi	r2,r2,1
    1f00:	e0bffd15 	stw	r2,-12(fp)
    1f04:	003bc906 	br	e2c <__alt_mem_VGA_Subsystem_Char_Buf_Subsystem_Onchip_SRAM+0xf7000e2c>
					}
				}

			}
		}
};
    1f08:	0001883a 	nop
    1f0c:	e037883a 	mov	sp,fp
    1f10:	dfc00117 	ldw	ra,4(sp)
    1f14:	df000017 	ldw	fp,0(sp)
    1f18:	dec00204 	addi	sp,sp,8
    1f1c:	f800283a 	ret

00001f20 <_ZN8KeyboardC1Ev>:
 *      Author: natha
 */

#include "Keyboard.h"

Keyboard::Keyboard(){
    1f20:	defffd04 	addi	sp,sp,-12
    1f24:	dfc00215 	stw	ra,8(sp)
    1f28:	df000115 	stw	fp,4(sp)
    1f2c:	df000104 	addi	fp,sp,4
    1f30:	e13fff15 	stw	r4,-4(fp)
    1f34:	e0bfff17 	ldw	r2,-4(fp)
    1f38:	1009883a 	mov	r4,r2
    1f3c:	00002840 	call	284 <_ZN19ControllerInterfaceC1Ev>
    1f40:	008000b4 	movhi	r2,2
    1f44:	10be9404 	addi	r2,r2,-1456
    1f48:	e0ffff17 	ldw	r3,-4(fp)
    1f4c:	18800015 	stw	r2,0(r3)
	this->PS2_dev = alt_up_ps2_open_dev ("/dev/PS2_Port");
    1f50:	010000b4 	movhi	r4,2
    1f54:	213e8004 	addi	r4,r4,-1536
    1f58:	001d8840 	call	1d884 <alt_up_ps2_open_dev>
    1f5c:	1007883a 	mov	r3,r2
    1f60:	e0bfff17 	ldw	r2,-4(fp)
    1f64:	10c00215 	stw	r3,8(r2)
	if (this->PS2_dev == NULL)
    1f68:	e0bfff17 	ldw	r2,-4(fp)
    1f6c:	10800217 	ldw	r2,8(r2)
    1f70:	1000041e 	bne	r2,zero,1f84 <_ZN8KeyboardC1Ev+0x64>
		printf("Error: could not open PS2 device\n");
    1f74:	010000b4 	movhi	r4,2
    1f78:	213e8404 	addi	r4,r4,-1520
    1f7c:	00077000 	call	7700 <puts>
    1f80:	00000306 	br	1f90 <_ZN8KeyboardC1Ev+0x70>
	else
		printf("Opened PS2 device\n");
    1f84:	010000b4 	movhi	r4,2
    1f88:	213e8d04 	addi	r4,r4,-1484
    1f8c:	00077000 	call	7700 <puts>

	alt_up_ps2_write_data_byte (this->PS2_dev, 0xFF);
    1f90:	e0bfff17 	ldw	r2,-4(fp)
    1f94:	10800217 	ldw	r2,8(r2)
    1f98:	01403fc4 	movi	r5,255
    1f9c:	1009883a 	mov	r4,r2
    1fa0:	001d4bc0 	call	1d4bc <alt_up_ps2_write_data_byte>
	alt_up_ps2_enable_read_interrupt(this->PS2_dev);
    1fa4:	e0bfff17 	ldw	r2,-4(fp)
    1fa8:	10800217 	ldw	r2,8(r2)
    1fac:	1009883a 	mov	r4,r2
    1fb0:	001d4000 	call	1d400 <alt_up_ps2_enable_read_interrupt>

	byte1 = 0, byte2 = 0, byte3 = 0;
    1fb4:	e0bfff17 	ldw	r2,-4(fp)
    1fb8:	10000305 	stb	zero,12(r2)
    1fbc:	e0bfff17 	ldw	r2,-4(fp)
    1fc0:	10000345 	stb	zero,13(r2)
    1fc4:	e0bfff17 	ldw	r2,-4(fp)
    1fc8:	10000385 	stb	zero,14(r2)
};
    1fcc:	0001883a 	nop
    1fd0:	e037883a 	mov	sp,fp
    1fd4:	dfc00117 	ldw	ra,4(sp)
    1fd8:	df000017 	ldw	fp,0(sp)
    1fdc:	dec00204 	addi	sp,sp,8
    1fe0:	f800283a 	ret

00001fe4 <_ZN8Keyboard6updateEv>:

void Keyboard::update(){
    1fe4:	defffd04 	addi	sp,sp,-12
    1fe8:	dfc00215 	stw	ra,8(sp)
    1fec:	df000115 	stw	fp,4(sp)
    1ff0:	df000104 	addi	fp,sp,4
    1ff4:	e13fff15 	stw	r4,-4(fp)
	while(alt_up_ps2_read_data_byte (PS2_dev, &PS2_data) == 0)
    1ff8:	e0bfff17 	ldw	r2,-4(fp)
    1ffc:	10c00217 	ldw	r3,8(r2)
    2000:	e0bfff17 	ldw	r2,-4(fp)
    2004:	108003c4 	addi	r2,r2,15
    2008:	100b883a 	mov	r5,r2
    200c:	1809883a 	mov	r4,r3
    2010:	001d6980 	call	1d698 <alt_up_ps2_read_data_byte>
    2014:	1005003a 	cmpeq	r2,r2,zero
    2018:	10803fcc 	andi	r2,r2,255
    201c:	10004126 	beq	r2,zero,2124 <_ZN8Keyboard6updateEv+0x140>
	{
		/* shift the next data byte into the display */
		byte1 = byte2;
    2020:	e0bfff17 	ldw	r2,-4(fp)
    2024:	10c00343 	ldbu	r3,13(r2)
    2028:	e0bfff17 	ldw	r2,-4(fp)
    202c:	10c00305 	stb	r3,12(r2)
		byte2 = byte3;
    2030:	e0bfff17 	ldw	r2,-4(fp)
    2034:	10c00383 	ldbu	r3,14(r2)
    2038:	e0bfff17 	ldw	r2,-4(fp)
    203c:	10c00345 	stb	r3,13(r2)
		byte3 = PS2_data;
    2040:	e0bfff17 	ldw	r2,-4(fp)
    2044:	10c003c3 	ldbu	r3,15(r2)
    2048:	e0bfff17 	ldw	r2,-4(fp)
    204c:	10c00385 	stb	r3,14(r2)

		//printf("%d-%d-%d \n\r", byte1, byte2, byte3);
		if(byte2 == 224 && byte3 == 107)
    2050:	e0bfff17 	ldw	r2,-4(fp)
    2054:	10800343 	ldbu	r2,13(r2)
    2058:	10803fcc 	andi	r2,r2,255
    205c:	10803818 	cmpnei	r2,r2,224
    2060:	1000081e 	bne	r2,zero,2084 <_ZN8Keyboard6updateEv+0xa0>
    2064:	e0bfff17 	ldw	r2,-4(fp)
    2068:	10800383 	ldbu	r2,14(r2)
    206c:	10803fcc 	andi	r2,r2,255
    2070:	10801ad8 	cmpnei	r2,r2,107
    2074:	1000031e 	bne	r2,zero,2084 <_ZN8Keyboard6updateEv+0xa0>
			this->activeButton = BUTTON_LEFT;
    2078:	e0bfff17 	ldw	r2,-4(fp)
    207c:	00c000c4 	movi	r3,3
    2080:	10c00115 	stw	r3,4(r2)
		if(byte2 == 224 && byte3 == 117)
    2084:	e0bfff17 	ldw	r2,-4(fp)
    2088:	10800343 	ldbu	r2,13(r2)
    208c:	10803fcc 	andi	r2,r2,255
    2090:	10803818 	cmpnei	r2,r2,224
    2094:	1000081e 	bne	r2,zero,20b8 <_ZN8Keyboard6updateEv+0xd4>
    2098:	e0bfff17 	ldw	r2,-4(fp)
    209c:	10800383 	ldbu	r2,14(r2)
    20a0:	10803fcc 	andi	r2,r2,255
    20a4:	10801d58 	cmpnei	r2,r2,117
    20a8:	1000031e 	bne	r2,zero,20b8 <_ZN8Keyboard6updateEv+0xd4>
			this->activeButton = BUTTON_UP;
    20ac:	e0bfff17 	ldw	r2,-4(fp)
    20b0:	00c00044 	movi	r3,1
    20b4:	10c00115 	stw	r3,4(r2)
		if(byte2 == 224 && byte3 == 116)
    20b8:	e0bfff17 	ldw	r2,-4(fp)
    20bc:	10800343 	ldbu	r2,13(r2)
    20c0:	10803fcc 	andi	r2,r2,255
    20c4:	10803818 	cmpnei	r2,r2,224
    20c8:	1000081e 	bne	r2,zero,20ec <_ZN8Keyboard6updateEv+0x108>
    20cc:	e0bfff17 	ldw	r2,-4(fp)
    20d0:	10800383 	ldbu	r2,14(r2)
    20d4:	10803fcc 	andi	r2,r2,255
    20d8:	10801d18 	cmpnei	r2,r2,116
    20dc:	1000031e 	bne	r2,zero,20ec <_ZN8Keyboard6updateEv+0x108>
			this->activeButton = BUTTON_RIGHT;
    20e0:	e0bfff17 	ldw	r2,-4(fp)
    20e4:	00c00104 	movi	r3,4
    20e8:	10c00115 	stw	r3,4(r2)
		if(byte2 == 224 && byte3 == 114)
    20ec:	e0bfff17 	ldw	r2,-4(fp)
    20f0:	10800343 	ldbu	r2,13(r2)
    20f4:	10803fcc 	andi	r2,r2,255
    20f8:	10803818 	cmpnei	r2,r2,224
    20fc:	103fbe1e 	bne	r2,zero,1ff8 <__alt_mem_VGA_Subsystem_Char_Buf_Subsystem_Onchip_SRAM+0xf7001ff8>
    2100:	e0bfff17 	ldw	r2,-4(fp)
    2104:	10800383 	ldbu	r2,14(r2)
    2108:	10803fcc 	andi	r2,r2,255
    210c:	10801c98 	cmpnei	r2,r2,114
    2110:	103fb91e 	bne	r2,zero,1ff8 <__alt_mem_VGA_Subsystem_Char_Buf_Subsystem_Onchip_SRAM+0xf7001ff8>
			this->activeButton = BUTTON_DOWN;
    2114:	e0bfff17 	ldw	r2,-4(fp)
    2118:	00c00084 	movi	r3,2
    211c:	10c00115 	stw	r3,4(r2)

	byte1 = 0, byte2 = 0, byte3 = 0;
};

void Keyboard::update(){
	while(alt_up_ps2_read_data_byte (PS2_dev, &PS2_data) == 0)
    2120:	003fb506 	br	1ff8 <__alt_mem_VGA_Subsystem_Char_Buf_Subsystem_Onchip_SRAM+0xf7001ff8>
		if(byte2 == 224 && byte3 == 114)
			this->activeButton = BUTTON_DOWN;
//		if(byte2 == 41 && byte3 == 41) // SPACE
//			pm->setDir(DIR_NO_DIR);
	}
};
    2124:	0001883a 	nop
    2128:	e037883a 	mov	sp,fp
    212c:	dfc00117 	ldw	ra,4(sp)
    2130:	df000017 	ldw	fp,0(sp)
    2134:	dec00204 	addi	sp,sp,8
    2138:	f800283a 	ret

0000213c <_ZN6PacManC1Eii>:
 *      Author: natha
 */

#include "PacMan.h"

PacMan::PacMan(int x, int y) : Entity(x, y) {
    213c:	defffb04 	addi	sp,sp,-20
    2140:	dfc00415 	stw	ra,16(sp)
    2144:	df000315 	stw	fp,12(sp)
    2148:	df000304 	addi	fp,sp,12
    214c:	e13ffd15 	stw	r4,-12(fp)
    2150:	e17ffe15 	stw	r5,-8(fp)
    2154:	e1bfff15 	stw	r6,-4(fp)
    2158:	e0bffd17 	ldw	r2,-12(fp)
    215c:	e1bfff17 	ldw	r6,-4(fp)
    2160:	e17ffe17 	ldw	r5,-8(fp)
    2164:	1009883a 	mov	r4,r2
    2168:	00002f80 	call	2f8 <_ZN6EntityC1Eii>
    216c:	008000b4 	movhi	r2,2
    2170:	10bf0904 	addi	r2,r2,-988
    2174:	e0fffd17 	ldw	r3,-12(fp)
    2178:	18800015 	stw	r2,0(r3)
    217c:	e0bffd17 	ldw	r2,-12(fp)
    2180:	10000b15 	stw	zero,44(r2)
    2184:	e0bffd17 	ldw	r2,-12(fp)
    2188:	10000c15 	stw	zero,48(r2)
    218c:	e0bffd17 	ldw	r2,-12(fp)
    2190:	00c00044 	movi	r3,1
    2194:	10c00d15 	stw	r3,52(r2)
    2198:	e0fffd17 	ldw	r3,-12(fp)
    219c:	008000b4 	movhi	r2,2
    21a0:	10be9a84 	addi	r2,r2,-1430
    21a4:	18c00e04 	addi	r3,r3,56
    21a8:	1009883a 	mov	r4,r2
    21ac:	00806c04 	movi	r2,432
    21b0:	100d883a 	mov	r6,r2
    21b4:	200b883a 	mov	r5,r4
    21b8:	1809883a 	mov	r4,r3
    21bc:	00073640 	call	7364 <memcpy>
	this->width = 12;
    21c0:	e0bffd17 	ldw	r2,-12(fp)
    21c4:	00c00304 	movi	r3,12
    21c8:	10c00515 	stw	r3,20(r2)
	this->height = 12;
    21cc:	e0bffd17 	ldw	r2,-12(fp)
    21d0:	00c00304 	movi	r3,12
    21d4:	10c00615 	stw	r3,24(r2)
	this->dir = DIR_NO_DIR;
    21d8:	e0bffd17 	ldw	r2,-12(fp)
    21dc:	00c00104 	movi	r3,4
    21e0:	10c00915 	stw	r3,36(r2)
	this->velocity = 50;
    21e4:	e0bffd17 	ldw	r2,-12(fp)
    21e8:	00c00c84 	movi	r3,50
    21ec:	10c00715 	stw	r3,28(r2)
};
    21f0:	0001883a 	nop
    21f4:	e037883a 	mov	sp,fp
    21f8:	dfc00117 	ldw	ra,4(sp)
    21fc:	df000017 	ldw	fp,0(sp)
    2200:	dec00204 	addi	sp,sp,8
    2204:	f800283a 	ret

00002208 <_ZN6PacMan5_drawEP14VideoInterface>:

void PacMan::_draw(VideoInterface* vi){
    2208:	defff804 	addi	sp,sp,-32
    220c:	dfc00715 	stw	ra,28(sp)
    2210:	df000615 	stw	fp,24(sp)
    2214:	df000604 	addi	fp,sp,24
    2218:	e13ffe15 	stw	r4,-8(fp)
    221c:	e17fff15 	stw	r5,-4(fp)
	for(int y = 0; y < this->width; y++){
    2220:	e03ffa15 	stw	zero,-24(fp)
    2224:	e0bffe17 	ldw	r2,-8(fp)
    2228:	10800517 	ldw	r2,20(r2)
    222c:	e0fffa17 	ldw	r3,-24(fp)
    2230:	1880630e 	bge	r3,r2,23c0 <_ZN6PacMan5_drawEP14VideoInterface+0x1b8>
		for(int x = 0; x < this->width; x++){
    2234:	e03ffb15 	stw	zero,-20(fp)
    2238:	e0bffe17 	ldw	r2,-8(fp)
    223c:	10800517 	ldw	r2,20(r2)
    2240:	e0fffb17 	ldw	r3,-20(fp)
    2244:	18805a0e 	bge	r3,r2,23b0 <_ZN6PacMan5_drawEP14VideoInterface+0x1a8>
			if(this->prev_dir == DIR_RIGHT || this->prev_dir == DIR_NO_DIR)
    2248:	e0bffe17 	ldw	r2,-8(fp)
    224c:	10800a17 	ldw	r2,40(r2)
    2250:	108000e0 	cmpeqi	r2,r2,3
    2254:	1000041e 	bne	r2,zero,2268 <_ZN6PacMan5_drawEP14VideoInterface+0x60>
    2258:	e0bffe17 	ldw	r2,-8(fp)
    225c:	10800a17 	ldw	r2,40(r2)
    2260:	10800118 	cmpnei	r2,r2,4
    2264:	10000f1e 	bne	r2,zero,22a4 <_ZN6PacMan5_drawEP14VideoInterface+0x9c>
				vi->drawPixel(this->prev_x + x - 2, this->prev_y + y - 2, 0);
    2268:	e0bffe17 	ldw	r2,-8(fp)
    226c:	10c00317 	ldw	r3,12(r2)
    2270:	e0bffb17 	ldw	r2,-20(fp)
    2274:	1885883a 	add	r2,r3,r2
    2278:	113fff84 	addi	r4,r2,-2
    227c:	e0bffe17 	ldw	r2,-8(fp)
    2280:	10c00417 	ldw	r3,16(r2)
    2284:	e0bffa17 	ldw	r2,-24(fp)
    2288:	1885883a 	add	r2,r3,r2
    228c:	10bfff84 	addi	r2,r2,-2
    2290:	000f883a 	mov	r7,zero
    2294:	100d883a 	mov	r6,r2
    2298:	200b883a 	mov	r5,r4
    229c:	e13fff17 	ldw	r4,-4(fp)
    22a0:	000283c0 	call	283c <_ZN14VideoInterface9drawPixelEiit>
			if(this->prev_dir == DIR_LEFT)
    22a4:	e0bffe17 	ldw	r2,-8(fp)
    22a8:	10800a17 	ldw	r2,40(r2)
    22ac:	10800098 	cmpnei	r2,r2,2
    22b0:	1000131e 	bne	r2,zero,2300 <_ZN6PacMan5_drawEP14VideoInterface+0xf8>
				vi->drawPixel(this->prev_x + (this->width - 1 - x) - 2, this->prev_y + y - 2, 0);
    22b4:	e0bffe17 	ldw	r2,-8(fp)
    22b8:	10c00317 	ldw	r3,12(r2)
    22bc:	e0bffe17 	ldw	r2,-8(fp)
    22c0:	10800517 	ldw	r2,20(r2)
    22c4:	113fffc4 	addi	r4,r2,-1
    22c8:	e0bffb17 	ldw	r2,-20(fp)
    22cc:	2085c83a 	sub	r2,r4,r2
    22d0:	1885883a 	add	r2,r3,r2
    22d4:	113fff84 	addi	r4,r2,-2
    22d8:	e0bffe17 	ldw	r2,-8(fp)
    22dc:	10c00417 	ldw	r3,16(r2)
    22e0:	e0bffa17 	ldw	r2,-24(fp)
    22e4:	1885883a 	add	r2,r3,r2
    22e8:	10bfff84 	addi	r2,r2,-2
    22ec:	000f883a 	mov	r7,zero
    22f0:	100d883a 	mov	r6,r2
    22f4:	200b883a 	mov	r5,r4
    22f8:	e13fff17 	ldw	r4,-4(fp)
    22fc:	000283c0 	call	283c <_ZN14VideoInterface9drawPixelEiit>
			if(this->prev_dir == DIR_DOWN)
    2300:	e0bffe17 	ldw	r2,-8(fp)
    2304:	10800a17 	ldw	r2,40(r2)
    2308:	10800058 	cmpnei	r2,r2,1
    230c:	10000f1e 	bne	r2,zero,234c <_ZN6PacMan5_drawEP14VideoInterface+0x144>
				vi->drawPixel(this->prev_x + y - 2, this->prev_y + x - 2, 0);
    2310:	e0bffe17 	ldw	r2,-8(fp)
    2314:	10c00317 	ldw	r3,12(r2)
    2318:	e0bffa17 	ldw	r2,-24(fp)
    231c:	1885883a 	add	r2,r3,r2
    2320:	113fff84 	addi	r4,r2,-2
    2324:	e0bffe17 	ldw	r2,-8(fp)
    2328:	10c00417 	ldw	r3,16(r2)
    232c:	e0bffb17 	ldw	r2,-20(fp)
    2330:	1885883a 	add	r2,r3,r2
    2334:	10bfff84 	addi	r2,r2,-2
    2338:	000f883a 	mov	r7,zero
    233c:	100d883a 	mov	r6,r2
    2340:	200b883a 	mov	r5,r4
    2344:	e13fff17 	ldw	r4,-4(fp)
    2348:	000283c0 	call	283c <_ZN14VideoInterface9drawPixelEiit>
			if(this->prev_dir == DIR_UP)
    234c:	e0bffe17 	ldw	r2,-8(fp)
    2350:	10800a17 	ldw	r2,40(r2)
    2354:	1000121e 	bne	r2,zero,23a0 <_ZN6PacMan5_drawEP14VideoInterface+0x198>
				vi->drawPixel(this->prev_x + y - 2, this->prev_y + (this->height - 1 - x) - 2, 0);
    2358:	e0bffe17 	ldw	r2,-8(fp)
    235c:	10c00317 	ldw	r3,12(r2)
    2360:	e0bffa17 	ldw	r2,-24(fp)
    2364:	1885883a 	add	r2,r3,r2
    2368:	117fff84 	addi	r5,r2,-2
    236c:	e0bffe17 	ldw	r2,-8(fp)
    2370:	10c00417 	ldw	r3,16(r2)
    2374:	e0bffe17 	ldw	r2,-8(fp)
    2378:	10800617 	ldw	r2,24(r2)
    237c:	113fffc4 	addi	r4,r2,-1
    2380:	e0bffb17 	ldw	r2,-20(fp)
    2384:	2085c83a 	sub	r2,r4,r2
    2388:	1885883a 	add	r2,r3,r2
    238c:	10bfff84 	addi	r2,r2,-2
    2390:	000f883a 	mov	r7,zero
    2394:	100d883a 	mov	r6,r2
    2398:	e13fff17 	ldw	r4,-4(fp)
    239c:	000283c0 	call	283c <_ZN14VideoInterface9drawPixelEiit>
	this->velocity = 50;
};

void PacMan::_draw(VideoInterface* vi){
	for(int y = 0; y < this->width; y++){
		for(int x = 0; x < this->width; x++){
    23a0:	e0bffb17 	ldw	r2,-20(fp)
    23a4:	10800044 	addi	r2,r2,1
    23a8:	e0bffb15 	stw	r2,-20(fp)
    23ac:	003fa206 	br	2238 <__alt_mem_VGA_Subsystem_Char_Buf_Subsystem_Onchip_SRAM+0xf7002238>
	this->dir = DIR_NO_DIR;
	this->velocity = 50;
};

void PacMan::_draw(VideoInterface* vi){
	for(int y = 0; y < this->width; y++){
    23b0:	e0bffa17 	ldw	r2,-24(fp)
    23b4:	10800044 	addi	r2,r2,1
    23b8:	e0bffa15 	stw	r2,-24(fp)
    23bc:	003f9906 	br	2224 <__alt_mem_VGA_Subsystem_Char_Buf_Subsystem_Onchip_SRAM+0xf7002224>
			if(this->prev_dir == DIR_UP)
				vi->drawPixel(this->prev_x + y - 2, this->prev_y + (this->height - 1 - x) - 2, 0);
		}
	}

	for(int y = 0; y < this->width; y++){
    23c0:	e03ffc15 	stw	zero,-16(fp)
    23c4:	e0bffe17 	ldw	r2,-8(fp)
    23c8:	10800517 	ldw	r2,20(r2)
    23cc:	e0fffc17 	ldw	r3,-16(fp)
    23d0:	1880710e 	bge	r3,r2,2598 <_ZN6PacMan5_drawEP14VideoInterface+0x390>
		for(int x = 0; x < this->width; x++){
    23d4:	e03ffd15 	stw	zero,-12(fp)
    23d8:	e0bffe17 	ldw	r2,-8(fp)
    23dc:	10800517 	ldw	r2,20(r2)
    23e0:	e0fffd17 	ldw	r3,-12(fp)
    23e4:	1880680e 	bge	r3,r2,2588 <_ZN6PacMan5_drawEP14VideoInterface+0x380>
			if(this->bmp[this->frame][y][x]){
    23e8:	e0bffe17 	ldw	r2,-8(fp)
    23ec:	10800b17 	ldw	r2,44(r2)
    23f0:	e0fffe17 	ldw	r3,-8(fp)
    23f4:	e13ffc17 	ldw	r4,-16(fp)
    23f8:	21000324 	muli	r4,r4,12
    23fc:	10802424 	muli	r2,r2,144
    2400:	2085883a 	add	r2,r4,r2
    2404:	1887883a 	add	r3,r3,r2
    2408:	e0bffd17 	ldw	r2,-12(fp)
    240c:	1885883a 	add	r2,r3,r2
    2410:	10800e04 	addi	r2,r2,56
    2414:	10800003 	ldbu	r2,0(r2)
    2418:	10803fcc 	andi	r2,r2,255
    241c:	10005626 	beq	r2,zero,2578 <_ZN6PacMan5_drawEP14VideoInterface+0x370>
				if(this->dir == DIR_RIGHT || this->dir == DIR_NO_DIR)
    2420:	e0bffe17 	ldw	r2,-8(fp)
    2424:	10800917 	ldw	r2,36(r2)
    2428:	108000e0 	cmpeqi	r2,r2,3
    242c:	1000041e 	bne	r2,zero,2440 <_ZN6PacMan5_drawEP14VideoInterface+0x238>
    2430:	e0bffe17 	ldw	r2,-8(fp)
    2434:	10800917 	ldw	r2,36(r2)
    2438:	10800118 	cmpnei	r2,r2,4
    243c:	10000f1e 	bne	r2,zero,247c <_ZN6PacMan5_drawEP14VideoInterface+0x274>
					vi->drawPixel(this->x + x - 2, this->y + y - 2, PACMAN_COLOR);
    2440:	e0bffe17 	ldw	r2,-8(fp)
    2444:	10c00117 	ldw	r3,4(r2)
    2448:	e0bffd17 	ldw	r2,-12(fp)
    244c:	1885883a 	add	r2,r3,r2
    2450:	113fff84 	addi	r4,r2,-2
    2454:	e0bffe17 	ldw	r2,-8(fp)
    2458:	10c00217 	ldw	r3,8(r2)
    245c:	e0bffc17 	ldw	r2,-16(fp)
    2460:	1885883a 	add	r2,r3,r2
    2464:	10bfff84 	addi	r2,r2,-2
    2468:	01ffb014 	movui	r7,65216
    246c:	100d883a 	mov	r6,r2
    2470:	200b883a 	mov	r5,r4
    2474:	e13fff17 	ldw	r4,-4(fp)
    2478:	000283c0 	call	283c <_ZN14VideoInterface9drawPixelEiit>
				if(this->dir == DIR_LEFT)
    247c:	e0bffe17 	ldw	r2,-8(fp)
    2480:	10800917 	ldw	r2,36(r2)
    2484:	10800098 	cmpnei	r2,r2,2
    2488:	1000131e 	bne	r2,zero,24d8 <_ZN6PacMan5_drawEP14VideoInterface+0x2d0>
					vi->drawPixel(this->x + (this->width - 1 - x) - 2, this->y + y - 2, PACMAN_COLOR);
    248c:	e0bffe17 	ldw	r2,-8(fp)
    2490:	10c00117 	ldw	r3,4(r2)
    2494:	e0bffe17 	ldw	r2,-8(fp)
    2498:	10800517 	ldw	r2,20(r2)
    249c:	113fffc4 	addi	r4,r2,-1
    24a0:	e0bffd17 	ldw	r2,-12(fp)
    24a4:	2085c83a 	sub	r2,r4,r2
    24a8:	1885883a 	add	r2,r3,r2
    24ac:	113fff84 	addi	r4,r2,-2
    24b0:	e0bffe17 	ldw	r2,-8(fp)
    24b4:	10c00217 	ldw	r3,8(r2)
    24b8:	e0bffc17 	ldw	r2,-16(fp)
    24bc:	1885883a 	add	r2,r3,r2
    24c0:	10bfff84 	addi	r2,r2,-2
    24c4:	01ffb014 	movui	r7,65216
    24c8:	100d883a 	mov	r6,r2
    24cc:	200b883a 	mov	r5,r4
    24d0:	e13fff17 	ldw	r4,-4(fp)
    24d4:	000283c0 	call	283c <_ZN14VideoInterface9drawPixelEiit>
				if(this->dir == DIR_DOWN)
    24d8:	e0bffe17 	ldw	r2,-8(fp)
    24dc:	10800917 	ldw	r2,36(r2)
    24e0:	10800058 	cmpnei	r2,r2,1
    24e4:	10000f1e 	bne	r2,zero,2524 <_ZN6PacMan5_drawEP14VideoInterface+0x31c>
					vi->drawPixel(this->x + y - 2, this->y + x - 2, PACMAN_COLOR);
    24e8:	e0bffe17 	ldw	r2,-8(fp)
    24ec:	10c00117 	ldw	r3,4(r2)
    24f0:	e0bffc17 	ldw	r2,-16(fp)
    24f4:	1885883a 	add	r2,r3,r2
    24f8:	113fff84 	addi	r4,r2,-2
    24fc:	e0bffe17 	ldw	r2,-8(fp)
    2500:	10c00217 	ldw	r3,8(r2)
    2504:	e0bffd17 	ldw	r2,-12(fp)
    2508:	1885883a 	add	r2,r3,r2
    250c:	10bfff84 	addi	r2,r2,-2
    2510:	01ffb014 	movui	r7,65216
    2514:	100d883a 	mov	r6,r2
    2518:	200b883a 	mov	r5,r4
    251c:	e13fff17 	ldw	r4,-4(fp)
    2520:	000283c0 	call	283c <_ZN14VideoInterface9drawPixelEiit>
				if(this->dir == DIR_UP)
    2524:	e0bffe17 	ldw	r2,-8(fp)
    2528:	10800917 	ldw	r2,36(r2)
    252c:	1000121e 	bne	r2,zero,2578 <_ZN6PacMan5_drawEP14VideoInterface+0x370>
					vi->drawPixel(this->x + y - 2, this->y + (this->height - 1 - x) - 2, PACMAN_COLOR);
    2530:	e0bffe17 	ldw	r2,-8(fp)
    2534:	10c00117 	ldw	r3,4(r2)
    2538:	e0bffc17 	ldw	r2,-16(fp)
    253c:	1885883a 	add	r2,r3,r2
    2540:	117fff84 	addi	r5,r2,-2
    2544:	e0bffe17 	ldw	r2,-8(fp)
    2548:	10c00217 	ldw	r3,8(r2)
    254c:	e0bffe17 	ldw	r2,-8(fp)
    2550:	10800617 	ldw	r2,24(r2)
    2554:	113fffc4 	addi	r4,r2,-1
    2558:	e0bffd17 	ldw	r2,-12(fp)
    255c:	2085c83a 	sub	r2,r4,r2
    2560:	1885883a 	add	r2,r3,r2
    2564:	10bfff84 	addi	r2,r2,-2
    2568:	01ffb014 	movui	r7,65216
    256c:	100d883a 	mov	r6,r2
    2570:	e13fff17 	ldw	r4,-4(fp)
    2574:	000283c0 	call	283c <_ZN14VideoInterface9drawPixelEiit>
				vi->drawPixel(this->prev_x + y - 2, this->prev_y + (this->height - 1 - x) - 2, 0);
		}
	}

	for(int y = 0; y < this->width; y++){
		for(int x = 0; x < this->width; x++){
    2578:	e0bffd17 	ldw	r2,-12(fp)
    257c:	10800044 	addi	r2,r2,1
    2580:	e0bffd15 	stw	r2,-12(fp)
    2584:	003f9406 	br	23d8 <__alt_mem_VGA_Subsystem_Char_Buf_Subsystem_Onchip_SRAM+0xf70023d8>
			if(this->prev_dir == DIR_UP)
				vi->drawPixel(this->prev_x + y - 2, this->prev_y + (this->height - 1 - x) - 2, 0);
		}
	}

	for(int y = 0; y < this->width; y++){
    2588:	e0bffc17 	ldw	r2,-16(fp)
    258c:	10800044 	addi	r2,r2,1
    2590:	e0bffc15 	stw	r2,-16(fp)
    2594:	003f8b06 	br	23c4 <__alt_mem_VGA_Subsystem_Char_Buf_Subsystem_Onchip_SRAM+0xf70023c4>
				if(this->dir == DIR_UP)
					vi->drawPixel(this->x + y - 2, this->y + (this->height - 1 - x) - 2, PACMAN_COLOR);
			}
		}
	}
};
    2598:	0001883a 	nop
    259c:	e037883a 	mov	sp,fp
    25a0:	dfc00117 	ldw	ra,4(sp)
    25a4:	df000017 	ldw	fp,0(sp)
    25a8:	dec00204 	addi	sp,sp,8
    25ac:	f800283a 	ret

000025b0 <_ZN6PacMan7_updateEi>:

void PacMan::_update(int elapsedTime){
    25b0:	defffd04 	addi	sp,sp,-12
    25b4:	df000215 	stw	fp,8(sp)
    25b8:	df000204 	addi	fp,sp,8
    25bc:	e13ffe15 	stw	r4,-8(fp)
    25c0:	e17fff15 	stw	r5,-4(fp)
	this->lastFrame = this->frame;
    25c4:	e0bffe17 	ldw	r2,-8(fp)
    25c8:	10c00b17 	ldw	r3,44(r2)
    25cc:	e0bffe17 	ldw	r2,-8(fp)
    25d0:	10c00c15 	stw	r3,48(r2)

	if(this->dir != DIR_NO_DIR){
    25d4:	e0bffe17 	ldw	r2,-8(fp)
    25d8:	10800917 	ldw	r2,36(r2)
    25dc:	10800120 	cmpeqi	r2,r2,4
    25e0:	1000261e 	bne	r2,zero,267c <_ZN6PacMan7_updateEi+0xcc>
		if(this->frameDir){
    25e4:	e0bffe17 	ldw	r2,-8(fp)
    25e8:	10800d17 	ldw	r2,52(r2)
    25ec:	10001226 	beq	r2,zero,2638 <_ZN6PacMan7_updateEi+0x88>
			if(this->frame < 2){
    25f0:	e0bffe17 	ldw	r2,-8(fp)
    25f4:	10800b17 	ldw	r2,44(r2)
    25f8:	10800088 	cmpgei	r2,r2,2
    25fc:	1000061e 	bne	r2,zero,2618 <_ZN6PacMan7_updateEi+0x68>
				this->frame++;
    2600:	e0bffe17 	ldw	r2,-8(fp)
    2604:	10800b17 	ldw	r2,44(r2)
    2608:	10c00044 	addi	r3,r2,1
    260c:	e0bffe17 	ldw	r2,-8(fp)
    2610:	10c00b15 	stw	r3,44(r2)
    2614:	00001906 	br	267c <_ZN6PacMan7_updateEi+0xcc>
			}else{
				this->frame--;
    2618:	e0bffe17 	ldw	r2,-8(fp)
    261c:	10800b17 	ldw	r2,44(r2)
    2620:	10ffffc4 	addi	r3,r2,-1
    2624:	e0bffe17 	ldw	r2,-8(fp)
    2628:	10c00b15 	stw	r3,44(r2)
				this->frameDir = 0;
    262c:	e0bffe17 	ldw	r2,-8(fp)
    2630:	10000d15 	stw	zero,52(r2)
    2634:	00001106 	br	267c <_ZN6PacMan7_updateEi+0xcc>
			}
		}else{
			if(this->frame > 0){
    2638:	e0bffe17 	ldw	r2,-8(fp)
    263c:	10800b17 	ldw	r2,44(r2)
    2640:	0080060e 	bge	zero,r2,265c <_ZN6PacMan7_updateEi+0xac>
				this->frame--;
    2644:	e0bffe17 	ldw	r2,-8(fp)
    2648:	10800b17 	ldw	r2,44(r2)
    264c:	10ffffc4 	addi	r3,r2,-1
    2650:	e0bffe17 	ldw	r2,-8(fp)
    2654:	10c00b15 	stw	r3,44(r2)
    2658:	00000806 	br	267c <_ZN6PacMan7_updateEi+0xcc>
			}else{
				this->frame++;
    265c:	e0bffe17 	ldw	r2,-8(fp)
    2660:	10800b17 	ldw	r2,44(r2)
    2664:	10c00044 	addi	r3,r2,1
    2668:	e0bffe17 	ldw	r2,-8(fp)
    266c:	10c00b15 	stw	r3,44(r2)
				this->frameDir = 1;
    2670:	e0bffe17 	ldw	r2,-8(fp)
    2674:	00c00044 	movi	r3,1
    2678:	10c00d15 	stw	r3,52(r2)
			}
		}
	}
	this->redraw = 1;
    267c:	e0bffe17 	ldw	r2,-8(fp)
    2680:	00c00044 	movi	r3,1
    2684:	10c00805 	stb	r3,32(r2)
};
    2688:	0001883a 	nop
    268c:	e037883a 	mov	sp,fp
    2690:	df000017 	ldw	fp,0(sp)
    2694:	dec00104 	addi	sp,sp,4
    2698:	f800283a 	ret

0000269c <_ZN3VGAC1EPsiii>:
 *      Author: natha
 */

#include "VGA.h"

VGA::VGA(short* pixel_buffer, int width, int height, int scale) : VideoInterface(width, height, scale) {
    269c:	defffa04 	addi	sp,sp,-24
    26a0:	dfc00515 	stw	ra,20(sp)
    26a4:	df000415 	stw	fp,16(sp)
    26a8:	df000404 	addi	fp,sp,16
    26ac:	e13ffc15 	stw	r4,-16(fp)
    26b0:	e17ffd15 	stw	r5,-12(fp)
    26b4:	e1bffe15 	stw	r6,-8(fp)
    26b8:	e1ffff15 	stw	r7,-4(fp)
    26bc:	e0bffc17 	ldw	r2,-16(fp)
    26c0:	e1c00217 	ldw	r7,8(fp)
    26c4:	e1bfff17 	ldw	r6,-4(fp)
    26c8:	e17ffe17 	ldw	r5,-8(fp)
    26cc:	1009883a 	mov	r4,r2
    26d0:	00027780 	call	2778 <_ZN14VideoInterfaceC1Eiii>
    26d4:	008000b4 	movhi	r2,2
    26d8:	10bf1004 	addi	r2,r2,-960
    26dc:	e0fffc17 	ldw	r3,-16(fp)
    26e0:	18800015 	stw	r2,0(r3)
	this->pbuffer = pixel_buffer;
    26e4:	e0bffc17 	ldw	r2,-16(fp)
    26e8:	e0fffd17 	ldw	r3,-12(fp)
    26ec:	10c00615 	stw	r3,24(r2)
};
    26f0:	0001883a 	nop
    26f4:	e037883a 	mov	sp,fp
    26f8:	dfc00117 	ldw	ra,4(sp)
    26fc:	df000017 	ldw	fp,0(sp)
    2700:	dec00204 	addi	sp,sp,8
    2704:	f800283a 	ret

00002708 <_ZN3VGA18_internalDrawPixelEiit>:

void VGA::_internalDrawPixel(int x, int y, uint16_t color){
    2708:	defff904 	addi	sp,sp,-28
    270c:	df000615 	stw	fp,24(sp)
    2710:	df000604 	addi	fp,sp,24
    2714:	e13ffc15 	stw	r4,-16(fp)
    2718:	e17ffd15 	stw	r5,-12(fp)
    271c:	e1bffe15 	stw	r6,-8(fp)
    2720:	3805883a 	mov	r2,r7
    2724:	e0bfff0d 	sth	r2,-4(fp)
	volatile short* pbuff = this->pbuffer;
    2728:	e0bffc17 	ldw	r2,-16(fp)
    272c:	10800617 	ldw	r2,24(r2)
    2730:	e0bffa15 	stw	r2,-24(fp)

	int offset = (y << 9) + x;
    2734:	e0bffe17 	ldw	r2,-8(fp)
    2738:	1006927a 	slli	r3,r2,9
    273c:	e0bffd17 	ldw	r2,-12(fp)
    2740:	1885883a 	add	r2,r3,r2
    2744:	e0bffb15 	stw	r2,-20(fp)
	*(pbuff + offset) = (short)color;
    2748:	e0bffb17 	ldw	r2,-20(fp)
    274c:	1085883a 	add	r2,r2,r2
    2750:	1007883a 	mov	r3,r2
    2754:	e0bffa17 	ldw	r2,-24(fp)
    2758:	10c5883a 	add	r2,r2,r3
    275c:	e0ffff0b 	ldhu	r3,-4(fp)
    2760:	10c0000d 	sth	r3,0(r2)
};
    2764:	0001883a 	nop
    2768:	e037883a 	mov	sp,fp
    276c:	df000017 	ldw	fp,0(sp)
    2770:	dec00104 	addi	sp,sp,4
    2774:	f800283a 	ret

00002778 <_ZN14VideoInterfaceC1Eiii>:
 *      Author: natha
 */

#include "VideoInterface.h"

VideoInterface::VideoInterface(int width, int height, int scale){
    2778:	defffb04 	addi	sp,sp,-20
    277c:	df000415 	stw	fp,16(sp)
    2780:	df000404 	addi	fp,sp,16
    2784:	e13ffc15 	stw	r4,-16(fp)
    2788:	e17ffd15 	stw	r5,-12(fp)
    278c:	e1bffe15 	stw	r6,-8(fp)
    2790:	e1ffff15 	stw	r7,-4(fp)
    2794:	008000b4 	movhi	r2,2
    2798:	10bf1b04 	addi	r2,r2,-916
    279c:	e0fffc17 	ldw	r3,-16(fp)
    27a0:	18800015 	stw	r2,0(r3)
	this->width = width;
    27a4:	e0bffc17 	ldw	r2,-16(fp)
    27a8:	e0fffd17 	ldw	r3,-12(fp)
    27ac:	10c00315 	stw	r3,12(r2)
	this->height = height;
    27b0:	e0bffc17 	ldw	r2,-16(fp)
    27b4:	e0fffe17 	ldw	r3,-8(fp)
    27b8:	10c00415 	stw	r3,16(r2)
	this->scale = scale;
    27bc:	e0bffc17 	ldw	r2,-16(fp)
    27c0:	e0ffff17 	ldw	r3,-4(fp)
    27c4:	10c00515 	stw	r3,20(r2)
	this->viLA = BRESENHAM;
    27c8:	e0bffc17 	ldw	r2,-16(fp)
    27cc:	00c00044 	movi	r3,1
    27d0:	10c00115 	stw	r3,4(r2)
};
    27d4:	0001883a 	nop
    27d8:	e037883a 	mov	sp,fp
    27dc:	df000017 	ldw	fp,0(sp)
    27e0:	dec00104 	addi	sp,sp,4
    27e4:	f800283a 	ret

000027e8 <_ZN14VideoInterface9drawPixelEii>:

void VideoInterface::drawPixel(int x, int y){
    27e8:	defffb04 	addi	sp,sp,-20
    27ec:	dfc00415 	stw	ra,16(sp)
    27f0:	df000315 	stw	fp,12(sp)
    27f4:	df000304 	addi	fp,sp,12
    27f8:	e13ffd15 	stw	r4,-12(fp)
    27fc:	e17ffe15 	stw	r5,-8(fp)
    2800:	e1bfff15 	stw	r6,-4(fp)
	this->drawPixel(x, y, this->color);
    2804:	e0bffd17 	ldw	r2,-12(fp)
    2808:	1080020b 	ldhu	r2,8(r2)
    280c:	10bfffcc 	andi	r2,r2,65535
    2810:	100f883a 	mov	r7,r2
    2814:	e1bfff17 	ldw	r6,-4(fp)
    2818:	e17ffe17 	ldw	r5,-8(fp)
    281c:	e13ffd17 	ldw	r4,-12(fp)
    2820:	000283c0 	call	283c <_ZN14VideoInterface9drawPixelEiit>
};
    2824:	0001883a 	nop
    2828:	e037883a 	mov	sp,fp
    282c:	dfc00117 	ldw	ra,4(sp)
    2830:	df000017 	ldw	fp,0(sp)
    2834:	dec00204 	addi	sp,sp,8
    2838:	f800283a 	ret

0000283c <_ZN14VideoInterface9drawPixelEiit>:

void VideoInterface::drawPixel(int x, int y, uint16_t color){
    283c:	defffa04 	addi	sp,sp,-24
    2840:	dfc00515 	stw	ra,20(sp)
    2844:	df000415 	stw	fp,16(sp)
    2848:	df000404 	addi	fp,sp,16
    284c:	e13ffc15 	stw	r4,-16(fp)
    2850:	e17ffd15 	stw	r5,-12(fp)
    2854:	e1bffe15 	stw	r6,-8(fp)
    2858:	3805883a 	mov	r2,r7
    285c:	e0bfff0d 	sth	r2,-4(fp)
	if(x < 0 || x > this->width - 1) return;
    2860:	e0bffd17 	ldw	r2,-12(fp)
    2864:	10001616 	blt	r2,zero,28c0 <_ZN14VideoInterface9drawPixelEiit+0x84>
    2868:	e0bffc17 	ldw	r2,-16(fp)
    286c:	10800317 	ldw	r2,12(r2)
    2870:	10ffffc4 	addi	r3,r2,-1
    2874:	e0bffd17 	ldw	r2,-12(fp)
    2878:	18801116 	blt	r3,r2,28c0 <_ZN14VideoInterface9drawPixelEiit+0x84>
	if(y < 0 || y > this->height - 1) return;
    287c:	e0bffe17 	ldw	r2,-8(fp)
    2880:	10001116 	blt	r2,zero,28c8 <_ZN14VideoInterface9drawPixelEiit+0x8c>
    2884:	e0bffc17 	ldw	r2,-16(fp)
    2888:	10800417 	ldw	r2,16(r2)
    288c:	10ffffc4 	addi	r3,r2,-1
    2890:	e0bffe17 	ldw	r2,-8(fp)
    2894:	18800c16 	blt	r3,r2,28c8 <_ZN14VideoInterface9drawPixelEiit+0x8c>
	this->_internalDrawPixel(x, y, color);
    2898:	e0bffc17 	ldw	r2,-16(fp)
    289c:	10800017 	ldw	r2,0(r2)
    28a0:	10800017 	ldw	r2,0(r2)
    28a4:	e0ffff0b 	ldhu	r3,-4(fp)
    28a8:	180f883a 	mov	r7,r3
    28ac:	e1bffe17 	ldw	r6,-8(fp)
    28b0:	e17ffd17 	ldw	r5,-12(fp)
    28b4:	e13ffc17 	ldw	r4,-16(fp)
    28b8:	103ee83a 	callr	r2
    28bc:	00000306 	br	28cc <_ZN14VideoInterface9drawPixelEiit+0x90>
void VideoInterface::drawPixel(int x, int y){
	this->drawPixel(x, y, this->color);
};

void VideoInterface::drawPixel(int x, int y, uint16_t color){
	if(x < 0 || x > this->width - 1) return;
    28c0:	0001883a 	nop
    28c4:	00000106 	br	28cc <_ZN14VideoInterface9drawPixelEiit+0x90>
	if(y < 0 || y > this->height - 1) return;
    28c8:	0001883a 	nop
	this->_internalDrawPixel(x, y, color);
};
    28cc:	e037883a 	mov	sp,fp
    28d0:	dfc00117 	ldw	ra,4(sp)
    28d4:	df000017 	ldw	fp,0(sp)
    28d8:	dec00204 	addi	sp,sp,8
    28dc:	f800283a 	ret

000028e0 <_ZN14VideoInterface8setColorEt>:

void VideoInterface::setColor(uint16_t color){
    28e0:	defffd04 	addi	sp,sp,-12
    28e4:	df000215 	stw	fp,8(sp)
    28e8:	df000204 	addi	fp,sp,8
    28ec:	e13ffe15 	stw	r4,-8(fp)
    28f0:	2805883a 	mov	r2,r5
    28f4:	e0bfff0d 	sth	r2,-4(fp)
	this->color = color;
    28f8:	e0bffe17 	ldw	r2,-8(fp)
    28fc:	e0ffff0b 	ldhu	r3,-4(fp)
    2900:	10c0020d 	sth	r3,8(r2)
};
    2904:	0001883a 	nop
    2908:	e037883a 	mov	sp,fp
    290c:	df000017 	ldw	fp,0(sp)
    2910:	dec00104 	addi	sp,sp,4
    2914:	f800283a 	ret

00002918 <_ZN14VideoInterface5clearEt>:

void VideoInterface::clear(uint16_t color){
    2918:	defff904 	addi	sp,sp,-28
    291c:	dfc00615 	stw	ra,24(sp)
    2920:	df000515 	stw	fp,20(sp)
    2924:	df000504 	addi	fp,sp,20
    2928:	e13ffe15 	stw	r4,-8(fp)
    292c:	2805883a 	mov	r2,r5
    2930:	e0bfff0d 	sth	r2,-4(fp)
	uint16_t tcol = this->color;
    2934:	e0bffe17 	ldw	r2,-8(fp)
    2938:	1080020b 	ldhu	r2,8(r2)
    293c:	e0bffd0d 	sth	r2,-12(fp)
	this->setColor(color);
    2940:	e0bfff0b 	ldhu	r2,-4(fp)
    2944:	100b883a 	mov	r5,r2
    2948:	e13ffe17 	ldw	r4,-8(fp)
    294c:	00028e00 	call	28e0 <_ZN14VideoInterface8setColorEt>
	for(int y = 0; y < height; y++){
    2950:	e03ffb15 	stw	zero,-20(fp)
    2954:	e0bffe17 	ldw	r2,-8(fp)
    2958:	10800417 	ldw	r2,16(r2)
    295c:	e0fffb17 	ldw	r3,-20(fp)
    2960:	1880110e 	bge	r3,r2,29a8 <_ZN14VideoInterface5clearEt+0x90>
		for(int x = 0; x < width; x++){
    2964:	e03ffc15 	stw	zero,-16(fp)
    2968:	e0bffe17 	ldw	r2,-8(fp)
    296c:	10800317 	ldw	r2,12(r2)
    2970:	e0fffc17 	ldw	r3,-16(fp)
    2974:	1880080e 	bge	r3,r2,2998 <_ZN14VideoInterface5clearEt+0x80>
			this->drawPixel(x, y);
    2978:	e1bffb17 	ldw	r6,-20(fp)
    297c:	e17ffc17 	ldw	r5,-16(fp)
    2980:	e13ffe17 	ldw	r4,-8(fp)
    2984:	00027e80 	call	27e8 <_ZN14VideoInterface9drawPixelEii>

void VideoInterface::clear(uint16_t color){
	uint16_t tcol = this->color;
	this->setColor(color);
	for(int y = 0; y < height; y++){
		for(int x = 0; x < width; x++){
    2988:	e0bffc17 	ldw	r2,-16(fp)
    298c:	10800044 	addi	r2,r2,1
    2990:	e0bffc15 	stw	r2,-16(fp)
    2994:	003ff406 	br	2968 <__alt_mem_VGA_Subsystem_Char_Buf_Subsystem_Onchip_SRAM+0xf7002968>
};

void VideoInterface::clear(uint16_t color){
	uint16_t tcol = this->color;
	this->setColor(color);
	for(int y = 0; y < height; y++){
    2998:	e0bffb17 	ldw	r2,-20(fp)
    299c:	10800044 	addi	r2,r2,1
    29a0:	e0bffb15 	stw	r2,-20(fp)
    29a4:	003feb06 	br	2954 <__alt_mem_VGA_Subsystem_Char_Buf_Subsystem_Onchip_SRAM+0xf7002954>
		for(int x = 0; x < width; x++){
			this->drawPixel(x, y);
		}
	}
	this->setColor(tcol);
    29a8:	e0bffd0b 	ldhu	r2,-12(fp)
    29ac:	100b883a 	mov	r5,r2
    29b0:	e13ffe17 	ldw	r4,-8(fp)
    29b4:	00028e00 	call	28e0 <_ZN14VideoInterface8setColorEt>
};
    29b8:	0001883a 	nop
    29bc:	e037883a 	mov	sp,fp
    29c0:	dfc00117 	ldw	ra,4(sp)
    29c4:	df000017 	ldw	fp,0(sp)
    29c8:	dec00204 	addi	sp,sp,8
    29cc:	f800283a 	ret

000029d0 <_ZN14VideoInterface10setLineAlgE9viLineAlg>:

void VideoInterface::setLineAlg(enum viLineAlg viLA){
    29d0:	defffd04 	addi	sp,sp,-12
    29d4:	df000215 	stw	fp,8(sp)
    29d8:	df000204 	addi	fp,sp,8
    29dc:	e13ffe15 	stw	r4,-8(fp)
    29e0:	e17fff15 	stw	r5,-4(fp)
	this->viLA = viLA;
    29e4:	e0bffe17 	ldw	r2,-8(fp)
    29e8:	e0ffff17 	ldw	r3,-4(fp)
    29ec:	10c00115 	stw	r3,4(r2)
};
    29f0:	0001883a 	nop
    29f4:	e037883a 	mov	sp,fp
    29f8:	df000017 	ldw	fp,0(sp)
    29fc:	dec00104 	addi	sp,sp,4
    2a00:	f800283a 	ret

00002a04 <_ZN14VideoInterface8drawLineEiiii>:

void VideoInterface::drawLine(int x0, int y0, int x1, int y1){
    2a04:	defff804 	addi	sp,sp,-32
    2a08:	dfc00715 	stw	ra,28(sp)
    2a0c:	df000615 	stw	fp,24(sp)
    2a10:	df000604 	addi	fp,sp,24
    2a14:	e13ffc15 	stw	r4,-16(fp)
    2a18:	e17ffd15 	stw	r5,-12(fp)
    2a1c:	e1bffe15 	stw	r6,-8(fp)
    2a20:	e1ffff15 	stw	r7,-4(fp)
	this->drawLine(x0, y0, x1, y1, this->color);
    2a24:	e0bffc17 	ldw	r2,-16(fp)
    2a28:	1080020b 	ldhu	r2,8(r2)
    2a2c:	10bfffcc 	andi	r2,r2,65535
    2a30:	d8800115 	stw	r2,4(sp)
    2a34:	e0800217 	ldw	r2,8(fp)
    2a38:	d8800015 	stw	r2,0(sp)
    2a3c:	e1ffff17 	ldw	r7,-4(fp)
    2a40:	e1bffe17 	ldw	r6,-8(fp)
    2a44:	e17ffd17 	ldw	r5,-12(fp)
    2a48:	e13ffc17 	ldw	r4,-16(fp)
    2a4c:	0002a680 	call	2a68 <_ZN14VideoInterface8drawLineEiiiit>
};
    2a50:	0001883a 	nop
    2a54:	e037883a 	mov	sp,fp
    2a58:	dfc00117 	ldw	ra,4(sp)
    2a5c:	df000017 	ldw	fp,0(sp)
    2a60:	dec00204 	addi	sp,sp,8
    2a64:	f800283a 	ret

00002a68 <_ZN14VideoInterface8drawLineEiiiit>:

void VideoInterface::drawLine(int x0, int y0, int x1, int y1, uint16_t color){
    2a68:	defff704 	addi	sp,sp,-36
    2a6c:	dfc00815 	stw	ra,32(sp)
    2a70:	df000715 	stw	fp,28(sp)
    2a74:	df000704 	addi	fp,sp,28
    2a78:	e13ffb15 	stw	r4,-20(fp)
    2a7c:	e17ffc15 	stw	r5,-16(fp)
    2a80:	e1bffd15 	stw	r6,-12(fp)
    2a84:	e1fffe15 	stw	r7,-8(fp)
    2a88:	e0800317 	ldw	r2,12(fp)
    2a8c:	e0bfff0d 	sth	r2,-4(fp)
	if(this->viLA == DDA) this->_drawLineDDA(x0, y0, x1, y1, color);
    2a90:	e0bffb17 	ldw	r2,-20(fp)
    2a94:	10800117 	ldw	r2,4(r2)
    2a98:	1000091e 	bne	r2,zero,2ac0 <_ZN14VideoInterface8drawLineEiiiit+0x58>
    2a9c:	e0bfff0b 	ldhu	r2,-4(fp)
    2aa0:	d8800115 	stw	r2,4(sp)
    2aa4:	e0800217 	ldw	r2,8(fp)
    2aa8:	d8800015 	stw	r2,0(sp)
    2aac:	e1fffe17 	ldw	r7,-8(fp)
    2ab0:	e1bffd17 	ldw	r6,-12(fp)
    2ab4:	e17ffc17 	ldw	r5,-16(fp)
    2ab8:	e13ffb17 	ldw	r4,-20(fp)
    2abc:	0002c200 	call	2c20 <_ZN14VideoInterface12_drawLineDDAEiiiit>
	if(this->viLA == BRESENHAM) this->_drawLineBRESENHAM(x0, y0, x1, y1, color);
    2ac0:	e0bffb17 	ldw	r2,-20(fp)
    2ac4:	10800117 	ldw	r2,4(r2)
    2ac8:	10800058 	cmpnei	r2,r2,1
    2acc:	1000091e 	bne	r2,zero,2af4 <_ZN14VideoInterface8drawLineEiiiit+0x8c>
    2ad0:	e0bfff0b 	ldhu	r2,-4(fp)
    2ad4:	d8800115 	stw	r2,4(sp)
    2ad8:	e0800217 	ldw	r2,8(fp)
    2adc:	d8800015 	stw	r2,0(sp)
    2ae0:	e1fffe17 	ldw	r7,-8(fp)
    2ae4:	e1bffd17 	ldw	r6,-12(fp)
    2ae8:	e17ffc17 	ldw	r5,-16(fp)
    2aec:	e13ffb17 	ldw	r4,-20(fp)
    2af0:	0002de00 	call	2de0 <_ZN14VideoInterface18_drawLineBRESENHAMEiiiit>
};
    2af4:	0001883a 	nop
    2af8:	e037883a 	mov	sp,fp
    2afc:	dfc00117 	ldw	ra,4(sp)
    2b00:	df000017 	ldw	fp,0(sp)
    2b04:	dec00204 	addi	sp,sp,8
    2b08:	f800283a 	ret

00002b0c <_ZN14VideoInterface8drawRectEiiii>:

void VideoInterface::drawRect(int x, int y, int width, int height){
    2b0c:	defff804 	addi	sp,sp,-32
    2b10:	dfc00715 	stw	ra,28(sp)
    2b14:	df000615 	stw	fp,24(sp)
    2b18:	df000604 	addi	fp,sp,24
    2b1c:	e13ffc15 	stw	r4,-16(fp)
    2b20:	e17ffd15 	stw	r5,-12(fp)
    2b24:	e1bffe15 	stw	r6,-8(fp)
    2b28:	e1ffff15 	stw	r7,-4(fp)
	this->drawRect(x, y, width, height, this->color);
    2b2c:	e0bffc17 	ldw	r2,-16(fp)
    2b30:	1080020b 	ldhu	r2,8(r2)
    2b34:	10bfffcc 	andi	r2,r2,65535
    2b38:	d8800115 	stw	r2,4(sp)
    2b3c:	e0800217 	ldw	r2,8(fp)
    2b40:	d8800015 	stw	r2,0(sp)
    2b44:	e1ffff17 	ldw	r7,-4(fp)
    2b48:	e1bffe17 	ldw	r6,-8(fp)
    2b4c:	e17ffd17 	ldw	r5,-12(fp)
    2b50:	e13ffc17 	ldw	r4,-16(fp)
    2b54:	0002b700 	call	2b70 <_ZN14VideoInterface8drawRectEiiiit>
};
    2b58:	0001883a 	nop
    2b5c:	e037883a 	mov	sp,fp
    2b60:	dfc00117 	ldw	ra,4(sp)
    2b64:	df000017 	ldw	fp,0(sp)
    2b68:	dec00204 	addi	sp,sp,8
    2b6c:	f800283a 	ret

00002b70 <_ZN14VideoInterface8drawRectEiiiit>:

void VideoInterface::drawRect(int x, int y, int width, int height, uint16_t color){
    2b70:	defff704 	addi	sp,sp,-36
    2b74:	dfc00815 	stw	ra,32(sp)
    2b78:	df000715 	stw	fp,28(sp)
    2b7c:	df000704 	addi	fp,sp,28
    2b80:	e13ffb15 	stw	r4,-20(fp)
    2b84:	e17ffc15 	stw	r5,-16(fp)
    2b88:	e1bffd15 	stw	r6,-12(fp)
    2b8c:	e1fffe15 	stw	r7,-8(fp)
    2b90:	e0800317 	ldw	r2,12(fp)
    2b94:	e0bfff0d 	sth	r2,-4(fp)
	for(int _y = 0; _y < height; _y++){
    2b98:	e03ff915 	stw	zero,-28(fp)
    2b9c:	e0fff917 	ldw	r3,-28(fp)
    2ba0:	e0800217 	ldw	r2,8(fp)
    2ba4:	1880180e 	bge	r3,r2,2c08 <_ZN14VideoInterface8drawRectEiiiit+0x98>
		for(int _x = 0; _x < width; _x++){
    2ba8:	e03ffa15 	stw	zero,-24(fp)
    2bac:	e0fffa17 	ldw	r3,-24(fp)
    2bb0:	e0bffe17 	ldw	r2,-8(fp)
    2bb4:	1880100e 	bge	r3,r2,2bf8 <_ZN14VideoInterface8drawRectEiiiit+0x88>
			this->drawPixel(x + _x, y + _y, color);
    2bb8:	e0fffc17 	ldw	r3,-16(fp)
    2bbc:	e0bffa17 	ldw	r2,-24(fp)
    2bc0:	1889883a 	add	r4,r3,r2
    2bc4:	e0fffd17 	ldw	r3,-12(fp)
    2bc8:	e0bff917 	ldw	r2,-28(fp)
    2bcc:	1885883a 	add	r2,r3,r2
    2bd0:	e0ffff0b 	ldhu	r3,-4(fp)
    2bd4:	180f883a 	mov	r7,r3
    2bd8:	100d883a 	mov	r6,r2
    2bdc:	200b883a 	mov	r5,r4
    2be0:	e13ffb17 	ldw	r4,-20(fp)
    2be4:	000283c0 	call	283c <_ZN14VideoInterface9drawPixelEiit>
	this->drawRect(x, y, width, height, this->color);
};

void VideoInterface::drawRect(int x, int y, int width, int height, uint16_t color){
	for(int _y = 0; _y < height; _y++){
		for(int _x = 0; _x < width; _x++){
    2be8:	e0bffa17 	ldw	r2,-24(fp)
    2bec:	10800044 	addi	r2,r2,1
    2bf0:	e0bffa15 	stw	r2,-24(fp)
    2bf4:	003fed06 	br	2bac <__alt_mem_VGA_Subsystem_Char_Buf_Subsystem_Onchip_SRAM+0xf7002bac>
void VideoInterface::drawRect(int x, int y, int width, int height){
	this->drawRect(x, y, width, height, this->color);
};

void VideoInterface::drawRect(int x, int y, int width, int height, uint16_t color){
	for(int _y = 0; _y < height; _y++){
    2bf8:	e0bff917 	ldw	r2,-28(fp)
    2bfc:	10800044 	addi	r2,r2,1
    2c00:	e0bff915 	stw	r2,-28(fp)
    2c04:	003fe506 	br	2b9c <__alt_mem_VGA_Subsystem_Char_Buf_Subsystem_Onchip_SRAM+0xf7002b9c>
		for(int _x = 0; _x < width; _x++){
			this->drawPixel(x + _x, y + _y, color);
		}
	}
};
    2c08:	0001883a 	nop
    2c0c:	e037883a 	mov	sp,fp
    2c10:	dfc00117 	ldw	ra,4(sp)
    2c14:	df000017 	ldw	fp,0(sp)
    2c18:	dec00204 	addi	sp,sp,8
    2c1c:	f800283a 	ret

00002c20 <_ZN14VideoInterface12_drawLineDDAEiiiit>:

void VideoInterface::_drawLineDDA(int x0, int y0, int x1, int y1, uint16_t color){
    2c20:	defff204 	addi	sp,sp,-56
    2c24:	dfc00d15 	stw	ra,52(sp)
    2c28:	df000c15 	stw	fp,48(sp)
    2c2c:	dc000b15 	stw	r16,44(sp)
    2c30:	df000c04 	addi	fp,sp,48
    2c34:	e13ffa15 	stw	r4,-24(fp)
    2c38:	e17ffb15 	stw	r5,-20(fp)
    2c3c:	e1bffc15 	stw	r6,-16(fp)
    2c40:	e1fffd15 	stw	r7,-12(fp)
    2c44:	e0800317 	ldw	r2,12(fp)
    2c48:	e0bffe0d 	sth	r2,-8(fp)
	float x, y, dx, dy, step;

	dx = (float)abs(x1 - x0);
    2c4c:	e0fffd17 	ldw	r3,-12(fp)
    2c50:	e0bffb17 	ldw	r2,-20(fp)
    2c54:	1885c83a 	sub	r2,r3,r2
    2c58:	1000010e 	bge	r2,zero,2c60 <_ZN14VideoInterface12_drawLineDDAEiiiit+0x40>
    2c5c:	0085c83a 	sub	r2,zero,r2
    2c60:	1009883a 	mov	r4,r2
    2c64:	00059580 	call	5958 <__floatsisf>
    2c68:	1007883a 	mov	r3,r2
    2c6c:	e0fff715 	stw	r3,-36(fp)
	dy = (float)abs(y1 - y0);
    2c70:	e0c00217 	ldw	r3,8(fp)
    2c74:	e0bffc17 	ldw	r2,-16(fp)
    2c78:	1885c83a 	sub	r2,r3,r2
    2c7c:	1000010e 	bge	r2,zero,2c84 <_ZN14VideoInterface12_drawLineDDAEiiiit+0x64>
    2c80:	0085c83a 	sub	r2,zero,r2
    2c84:	1009883a 	mov	r4,r2
    2c88:	00059580 	call	5958 <__floatsisf>
    2c8c:	1007883a 	mov	r3,r2
    2c90:	e0fff815 	stw	r3,-32(fp)

	step = (dx >= dy) ? dx : dy;
    2c94:	e17ff817 	ldw	r5,-32(fp)
    2c98:	e13ff717 	ldw	r4,-36(fp)
    2c9c:	00057640 	call	5764 <__gesf2>
    2ca0:	10000216 	blt	r2,zero,2cac <_ZN14VideoInterface12_drawLineDDAEiiiit+0x8c>
    2ca4:	e0bff717 	ldw	r2,-36(fp)
    2ca8:	00000106 	br	2cb0 <_ZN14VideoInterface12_drawLineDDAEiiiit+0x90>
    2cac:	e0bff817 	ldw	r2,-32(fp)
    2cb0:	e0bff915 	stw	r2,-28(fp)

	dx = dx / step;
    2cb4:	e0fff717 	ldw	r3,-36(fp)
    2cb8:	e0bff917 	ldw	r2,-28(fp)
    2cbc:	1885fff2 	custom	255,r2,r3,r2
    2cc0:	e0bff715 	stw	r2,-36(fp)
	dy = dy / step;
    2cc4:	e0fff817 	ldw	r3,-32(fp)
    2cc8:	e0bff917 	ldw	r2,-28(fp)
    2ccc:	1885fff2 	custom	255,r2,r3,r2
    2cd0:	e0bff815 	stw	r2,-32(fp)

	x = x0;
    2cd4:	e13ffb17 	ldw	r4,-20(fp)
    2cd8:	00059580 	call	5958 <__floatsisf>
    2cdc:	1007883a 	mov	r3,r2
    2ce0:	e0fff415 	stw	r3,-48(fp)
	y = y0;
    2ce4:	e13ffc17 	ldw	r4,-16(fp)
    2ce8:	00059580 	call	5958 <__floatsisf>
    2cec:	1007883a 	mov	r3,r2
    2cf0:	e0fff515 	stw	r3,-44(fp)

	for(int i = 0; i < step; i++){
    2cf4:	e03ff615 	stw	zero,-40(fp)
    2cf8:	e13ff617 	ldw	r4,-40(fp)
    2cfc:	00059580 	call	5958 <__floatsisf>
    2d00:	1007883a 	mov	r3,r2
    2d04:	e17ff917 	ldw	r5,-28(fp)
    2d08:	1809883a 	mov	r4,r3
    2d0c:	00058200 	call	5820 <__lesf2>
    2d10:	10000116 	blt	r2,zero,2d18 <_ZN14VideoInterface12_drawLineDDAEiiiit+0xf8>
		this->drawPixel(round(x), round(y), color);
		x += dx;
		y += dy;
	}
};
    2d14:	00002c06 	br	2dc8 <_ZN14VideoInterface12_drawLineDDAEiiiit+0x1a8>

	x = x0;
	y = y0;

	for(int i = 0; i < step; i++){
		this->drawPixel(round(x), round(y), color);
    2d18:	e13ff417 	ldw	r4,-48(fp)
    2d1c:	00064840 	call	6484 <__extendsfdf2>
    2d20:	100b883a 	mov	r5,r2
    2d24:	180d883a 	mov	r6,r3
    2d28:	2809883a 	mov	r4,r5
    2d2c:	300b883a 	mov	r5,r6
    2d30:	00051180 	call	5118 <round>
    2d34:	100b883a 	mov	r5,r2
    2d38:	180d883a 	mov	r6,r3
    2d3c:	2809883a 	mov	r4,r5
    2d40:	300b883a 	mov	r5,r6
    2d44:	00063280 	call	6328 <__fixdfsi>
    2d48:	1021883a 	mov	r16,r2
    2d4c:	e13ff517 	ldw	r4,-44(fp)
    2d50:	00064840 	call	6484 <__extendsfdf2>
    2d54:	100b883a 	mov	r5,r2
    2d58:	180d883a 	mov	r6,r3
    2d5c:	2809883a 	mov	r4,r5
    2d60:	300b883a 	mov	r5,r6
    2d64:	00051180 	call	5118 <round>
    2d68:	100b883a 	mov	r5,r2
    2d6c:	180d883a 	mov	r6,r3
    2d70:	2809883a 	mov	r4,r5
    2d74:	300b883a 	mov	r5,r6
    2d78:	00063280 	call	6328 <__fixdfsi>
    2d7c:	1007883a 	mov	r3,r2
    2d80:	e0bffe0b 	ldhu	r2,-8(fp)
    2d84:	100f883a 	mov	r7,r2
    2d88:	180d883a 	mov	r6,r3
    2d8c:	800b883a 	mov	r5,r16
    2d90:	e13ffa17 	ldw	r4,-24(fp)
    2d94:	000283c0 	call	283c <_ZN14VideoInterface9drawPixelEiit>
		x += dx;
    2d98:	e0fff417 	ldw	r3,-48(fp)
    2d9c:	e0bff717 	ldw	r2,-36(fp)
    2da0:	1885ff72 	custom	253,r2,r3,r2
    2da4:	e0bff415 	stw	r2,-48(fp)
		y += dy;
    2da8:	e0fff517 	ldw	r3,-44(fp)
    2dac:	e0bff817 	ldw	r2,-32(fp)
    2db0:	1885ff72 	custom	253,r2,r3,r2
    2db4:	e0bff515 	stw	r2,-44(fp)
	dy = dy / step;

	x = x0;
	y = y0;

	for(int i = 0; i < step; i++){
    2db8:	e0bff617 	ldw	r2,-40(fp)
    2dbc:	10800044 	addi	r2,r2,1
    2dc0:	e0bff615 	stw	r2,-40(fp)
    2dc4:	003fcc06 	br	2cf8 <__alt_mem_VGA_Subsystem_Char_Buf_Subsystem_Onchip_SRAM+0xf7002cf8>
		this->drawPixel(round(x), round(y), color);
		x += dx;
		y += dy;
	}
};
    2dc8:	e6ffff04 	addi	sp,fp,-4
    2dcc:	dfc00217 	ldw	ra,8(sp)
    2dd0:	df000117 	ldw	fp,4(sp)
    2dd4:	dc000017 	ldw	r16,0(sp)
    2dd8:	dec00304 	addi	sp,sp,12
    2ddc:	f800283a 	ret

00002de0 <_ZN14VideoInterface18_drawLineBRESENHAMEiiiit>:

void VideoInterface::_drawLineBRESENHAM(int x0, int y0, int x1, int y1, uint16_t color){
    2de0:	deffea04 	addi	sp,sp,-88
    2de4:	dfc01515 	stw	ra,84(sp)
    2de8:	df001415 	stw	fp,80(sp)
    2dec:	dcc01315 	stw	r19,76(sp)
    2df0:	dc801215 	stw	r18,72(sp)
    2df4:	dc401115 	stw	r17,68(sp)
    2df8:	dc001015 	stw	r16,64(sp)
    2dfc:	df001404 	addi	fp,sp,80
    2e00:	e13ff715 	stw	r4,-36(fp)
    2e04:	e17ff815 	stw	r5,-32(fp)
    2e08:	e1bff915 	stw	r6,-28(fp)
    2e0c:	e1fffa15 	stw	r7,-24(fp)
    2e10:	e0800317 	ldw	r2,12(fp)
    2e14:	e0bffb0d 	sth	r2,-20(fp)
	int x, y, dx, dy, dx1, dy1, px, py, xe, ye, i;
	dx = x1 - x0;
    2e18:	e0fffa17 	ldw	r3,-24(fp)
    2e1c:	e0bff817 	ldw	r2,-32(fp)
    2e20:	1885c83a 	sub	r2,r3,r2
    2e24:	e0bff315 	stw	r2,-52(fp)
	dy = y1 - y0;
    2e28:	e0c00217 	ldw	r3,8(fp)
    2e2c:	e0bff917 	ldw	r2,-28(fp)
    2e30:	1885c83a 	sub	r2,r3,r2
    2e34:	e0bff415 	stw	r2,-48(fp)
	dx1 = fabs(dx);
    2e38:	e13ff317 	ldw	r4,-52(fp)
    2e3c:	00063a80 	call	63a8 <__floatsidf>
    2e40:	1009883a 	mov	r4,r2
    2e44:	180b883a 	mov	r5,r3
    2e48:	2025883a 	mov	r18,r4
    2e4c:	00a00034 	movhi	r2,32768
    2e50:	10bfffc4 	addi	r2,r2,-1
    2e54:	28a6703a 	and	r19,r5,r2
    2e58:	9009883a 	mov	r4,r18
    2e5c:	980b883a 	mov	r5,r19
    2e60:	00063280 	call	6328 <__fixdfsi>
    2e64:	e0bff515 	stw	r2,-44(fp)
	dy1 = fabs(dy);
    2e68:	e13ff417 	ldw	r4,-48(fp)
    2e6c:	00063a80 	call	63a8 <__floatsidf>
    2e70:	1009883a 	mov	r4,r2
    2e74:	180b883a 	mov	r5,r3
    2e78:	2021883a 	mov	r16,r4
    2e7c:	00a00034 	movhi	r2,32768
    2e80:	10bfffc4 	addi	r2,r2,-1
    2e84:	28a2703a 	and	r17,r5,r2
    2e88:	8009883a 	mov	r4,r16
    2e8c:	880b883a 	mov	r5,r17
    2e90:	00063280 	call	6328 <__fixdfsi>
    2e94:	e0bff615 	stw	r2,-40(fp)
	px = 2*dy1 - dx1;
    2e98:	e0bff617 	ldw	r2,-40(fp)
    2e9c:	1085883a 	add	r2,r2,r2
    2ea0:	1007883a 	mov	r3,r2
    2ea4:	e0bff517 	ldw	r2,-44(fp)
    2ea8:	1885c83a 	sub	r2,r3,r2
    2eac:	e0bfee15 	stw	r2,-72(fp)
	py = 2*dx1 - dy1;
    2eb0:	e0bff517 	ldw	r2,-44(fp)
    2eb4:	1085883a 	add	r2,r2,r2
    2eb8:	1007883a 	mov	r3,r2
    2ebc:	e0bff617 	ldw	r2,-40(fp)
    2ec0:	1885c83a 	sub	r2,r3,r2
    2ec4:	e0bfef15 	stw	r2,-68(fp)
	if(dy1 <= dx1 ){
    2ec8:	e0bff617 	ldw	r2,-40(fp)
    2ecc:	e0fff517 	ldw	r3,-44(fp)
    2ed0:	18804616 	blt	r3,r2,2fec <_ZN14VideoInterface18_drawLineBRESENHAMEiiiit+0x20c>
		if(dx >= 0){
    2ed4:	e0bff317 	ldw	r2,-52(fp)
    2ed8:	10000716 	blt	r2,zero,2ef8 <_ZN14VideoInterface18_drawLineBRESENHAMEiiiit+0x118>
			x = x0;
    2edc:	e0bff817 	ldw	r2,-32(fp)
    2ee0:	e0bfec15 	stw	r2,-80(fp)
			y = y0;
    2ee4:	e0bff917 	ldw	r2,-28(fp)
    2ee8:	e0bfed15 	stw	r2,-76(fp)
			xe = x1;
    2eec:	e0bffa17 	ldw	r2,-24(fp)
    2ef0:	e0bff015 	stw	r2,-64(fp)
    2ef4:	00000606 	br	2f10 <_ZN14VideoInterface18_drawLineBRESENHAMEiiiit+0x130>
		}else{
			x = x1;
    2ef8:	e0bffa17 	ldw	r2,-24(fp)
    2efc:	e0bfec15 	stw	r2,-80(fp)
			y = y1;
    2f00:	e0800217 	ldw	r2,8(fp)
    2f04:	e0bfed15 	stw	r2,-76(fp)
			xe = x0;
    2f08:	e0bff817 	ldw	r2,-32(fp)
    2f0c:	e0bff015 	stw	r2,-64(fp)
		}
		this->drawPixel(x, y, color);
    2f10:	e0bffb0b 	ldhu	r2,-20(fp)
    2f14:	100f883a 	mov	r7,r2
    2f18:	e1bfed17 	ldw	r6,-76(fp)
    2f1c:	e17fec17 	ldw	r5,-80(fp)
    2f20:	e13ff717 	ldw	r4,-36(fp)
    2f24:	000283c0 	call	283c <_ZN14VideoInterface9drawPixelEiit>
		for(i = 0; x < xe; i++){
    2f28:	e03ff215 	stw	zero,-56(fp)
    2f2c:	e0ffec17 	ldw	r3,-80(fp)
    2f30:	e0bff017 	ldw	r2,-64(fp)
    2f34:	1880730e 	bge	r3,r2,3104 <_ZN14VideoInterface18_drawLineBRESENHAMEiiiit+0x324>
			x += 1;
    2f38:	e0bfec17 	ldw	r2,-80(fp)
    2f3c:	10800044 	addi	r2,r2,1
    2f40:	e0bfec15 	stw	r2,-80(fp)
			if(px < 0){
    2f44:	e0bfee17 	ldw	r2,-72(fp)
    2f48:	1000070e 	bge	r2,zero,2f68 <_ZN14VideoInterface18_drawLineBRESENHAMEiiiit+0x188>
				px += 2*dy1;
    2f4c:	e0bff617 	ldw	r2,-40(fp)
    2f50:	1085883a 	add	r2,r2,r2
    2f54:	1007883a 	mov	r3,r2
    2f58:	e0bfee17 	ldw	r2,-72(fp)
    2f5c:	10c5883a 	add	r2,r2,r3
    2f60:	e0bfee15 	stw	r2,-72(fp)
    2f64:	00001706 	br	2fc4 <_ZN14VideoInterface18_drawLineBRESENHAMEiiiit+0x1e4>
			}else{
				if((dx < 0 && dy < 0)||(dx > 0 && dy > 0)){
    2f68:	e0bff317 	ldw	r2,-52(fp)
    2f6c:	1000020e 	bge	r2,zero,2f78 <_ZN14VideoInterface18_drawLineBRESENHAMEiiiit+0x198>
    2f70:	e0bff417 	ldw	r2,-48(fp)
    2f74:	10000416 	blt	r2,zero,2f88 <_ZN14VideoInterface18_drawLineBRESENHAMEiiiit+0x1a8>
    2f78:	e0bff317 	ldw	r2,-52(fp)
    2f7c:	0080060e 	bge	zero,r2,2f98 <_ZN14VideoInterface18_drawLineBRESENHAMEiiiit+0x1b8>
    2f80:	e0bff417 	ldw	r2,-48(fp)
    2f84:	0080040e 	bge	zero,r2,2f98 <_ZN14VideoInterface18_drawLineBRESENHAMEiiiit+0x1b8>
					y += 1;
    2f88:	e0bfed17 	ldw	r2,-76(fp)
    2f8c:	10800044 	addi	r2,r2,1
    2f90:	e0bfed15 	stw	r2,-76(fp)
    2f94:	00000306 	br	2fa4 <_ZN14VideoInterface18_drawLineBRESENHAMEiiiit+0x1c4>
				}else{
					y -= 1;
    2f98:	e0bfed17 	ldw	r2,-76(fp)
    2f9c:	10bfffc4 	addi	r2,r2,-1
    2fa0:	e0bfed15 	stw	r2,-76(fp)
				}
				px = px + 2*(dy1 - dx1);
    2fa4:	e0fff617 	ldw	r3,-40(fp)
    2fa8:	e0bff517 	ldw	r2,-44(fp)
    2fac:	1885c83a 	sub	r2,r3,r2
    2fb0:	1085883a 	add	r2,r2,r2
    2fb4:	1007883a 	mov	r3,r2
    2fb8:	e0bfee17 	ldw	r2,-72(fp)
    2fbc:	10c5883a 	add	r2,r2,r3
    2fc0:	e0bfee15 	stw	r2,-72(fp)
			}
			this->drawPixel(x, y, color);
    2fc4:	e0bffb0b 	ldhu	r2,-20(fp)
    2fc8:	100f883a 	mov	r7,r2
    2fcc:	e1bfed17 	ldw	r6,-76(fp)
    2fd0:	e17fec17 	ldw	r5,-80(fp)
    2fd4:	e13ff717 	ldw	r4,-36(fp)
    2fd8:	000283c0 	call	283c <_ZN14VideoInterface9drawPixelEiit>
			x = x1;
			y = y1;
			xe = x0;
		}
		this->drawPixel(x, y, color);
		for(i = 0; x < xe; i++){
    2fdc:	e0bff217 	ldw	r2,-56(fp)
    2fe0:	10800044 	addi	r2,r2,1
    2fe4:	e0bff215 	stw	r2,-56(fp)
    2fe8:	003fd006 	br	2f2c <__alt_mem_VGA_Subsystem_Char_Buf_Subsystem_Onchip_SRAM+0xf7002f2c>
				px = px + 2*(dy1 - dx1);
			}
			this->drawPixel(x, y, color);
		}
	}else{
		if(dy >= 0){
    2fec:	e0bff417 	ldw	r2,-48(fp)
    2ff0:	10000716 	blt	r2,zero,3010 <_ZN14VideoInterface18_drawLineBRESENHAMEiiiit+0x230>
			x = x0;
    2ff4:	e0bff817 	ldw	r2,-32(fp)
    2ff8:	e0bfec15 	stw	r2,-80(fp)
			y = y0;
    2ffc:	e0bff917 	ldw	r2,-28(fp)
    3000:	e0bfed15 	stw	r2,-76(fp)
			ye = y1;
    3004:	e0800217 	ldw	r2,8(fp)
    3008:	e0bff115 	stw	r2,-60(fp)
    300c:	00000606 	br	3028 <_ZN14VideoInterface18_drawLineBRESENHAMEiiiit+0x248>
		}else{
			x = x1;
    3010:	e0bffa17 	ldw	r2,-24(fp)
    3014:	e0bfec15 	stw	r2,-80(fp)
			y = y1;
    3018:	e0800217 	ldw	r2,8(fp)
    301c:	e0bfed15 	stw	r2,-76(fp)
			ye = y0;
    3020:	e0bff917 	ldw	r2,-28(fp)
    3024:	e0bff115 	stw	r2,-60(fp)
		}
		this->drawPixel(x, y, color);
    3028:	e0bffb0b 	ldhu	r2,-20(fp)
    302c:	100f883a 	mov	r7,r2
    3030:	e1bfed17 	ldw	r6,-76(fp)
    3034:	e17fec17 	ldw	r5,-80(fp)
    3038:	e13ff717 	ldw	r4,-36(fp)
    303c:	000283c0 	call	283c <_ZN14VideoInterface9drawPixelEiit>
		for(i = 0;y < ye; i++){
    3040:	e03ff215 	stw	zero,-56(fp)
    3044:	e0ffed17 	ldw	r3,-76(fp)
    3048:	e0bff117 	ldw	r2,-60(fp)
    304c:	18802d0e 	bge	r3,r2,3104 <_ZN14VideoInterface18_drawLineBRESENHAMEiiiit+0x324>
			y += 1;
    3050:	e0bfed17 	ldw	r2,-76(fp)
    3054:	10800044 	addi	r2,r2,1
    3058:	e0bfed15 	stw	r2,-76(fp)
			if(py <= 0){
    305c:	e0bfef17 	ldw	r2,-68(fp)
    3060:	00800716 	blt	zero,r2,3080 <_ZN14VideoInterface18_drawLineBRESENHAMEiiiit+0x2a0>
				py = py + 2*dx1;
    3064:	e0bff517 	ldw	r2,-44(fp)
    3068:	1085883a 	add	r2,r2,r2
    306c:	1007883a 	mov	r3,r2
    3070:	e0bfef17 	ldw	r2,-68(fp)
    3074:	10c5883a 	add	r2,r2,r3
    3078:	e0bfef15 	stw	r2,-68(fp)
    307c:	00001706 	br	30dc <_ZN14VideoInterface18_drawLineBRESENHAMEiiiit+0x2fc>
			}else{
				if((dx < 0 && dy < 0)||(dx > 0 && dy > 0)){
    3080:	e0bff317 	ldw	r2,-52(fp)
    3084:	1000020e 	bge	r2,zero,3090 <_ZN14VideoInterface18_drawLineBRESENHAMEiiiit+0x2b0>
    3088:	e0bff417 	ldw	r2,-48(fp)
    308c:	10000416 	blt	r2,zero,30a0 <_ZN14VideoInterface18_drawLineBRESENHAMEiiiit+0x2c0>
    3090:	e0bff317 	ldw	r2,-52(fp)
    3094:	0080060e 	bge	zero,r2,30b0 <_ZN14VideoInterface18_drawLineBRESENHAMEiiiit+0x2d0>
    3098:	e0bff417 	ldw	r2,-48(fp)
    309c:	0080040e 	bge	zero,r2,30b0 <_ZN14VideoInterface18_drawLineBRESENHAMEiiiit+0x2d0>
					x += 1;
    30a0:	e0bfec17 	ldw	r2,-80(fp)
    30a4:	10800044 	addi	r2,r2,1
    30a8:	e0bfec15 	stw	r2,-80(fp)
    30ac:	00000306 	br	30bc <_ZN14VideoInterface18_drawLineBRESENHAMEiiiit+0x2dc>
				}else{
					x -= 1;
    30b0:	e0bfec17 	ldw	r2,-80(fp)
    30b4:	10bfffc4 	addi	r2,r2,-1
    30b8:	e0bfec15 	stw	r2,-80(fp)
				}
				py = py + 2*(dx1 - dy1);
    30bc:	e0fff517 	ldw	r3,-44(fp)
    30c0:	e0bff617 	ldw	r2,-40(fp)
    30c4:	1885c83a 	sub	r2,r3,r2
    30c8:	1085883a 	add	r2,r2,r2
    30cc:	1007883a 	mov	r3,r2
    30d0:	e0bfef17 	ldw	r2,-68(fp)
    30d4:	10c5883a 	add	r2,r2,r3
    30d8:	e0bfef15 	stw	r2,-68(fp)
			}
			this->drawPixel(x, y, color);
    30dc:	e0bffb0b 	ldhu	r2,-20(fp)
    30e0:	100f883a 	mov	r7,r2
    30e4:	e1bfed17 	ldw	r6,-76(fp)
    30e8:	e17fec17 	ldw	r5,-80(fp)
    30ec:	e13ff717 	ldw	r4,-36(fp)
    30f0:	000283c0 	call	283c <_ZN14VideoInterface9drawPixelEiit>
			x = x1;
			y = y1;
			ye = y0;
		}
		this->drawPixel(x, y, color);
		for(i = 0;y < ye; i++){
    30f4:	e0bff217 	ldw	r2,-56(fp)
    30f8:	10800044 	addi	r2,r2,1
    30fc:	e0bff215 	stw	r2,-56(fp)
    3100:	003fd006 	br	3044 <__alt_mem_VGA_Subsystem_Char_Buf_Subsystem_Onchip_SRAM+0xf7003044>
				py = py + 2*(dx1 - dy1);
			}
			this->drawPixel(x, y, color);
		}
	}
};
    3104:	0001883a 	nop
    3108:	e6fffc04 	addi	sp,fp,-16
    310c:	dfc00517 	ldw	ra,20(sp)
    3110:	df000417 	ldw	fp,16(sp)
    3114:	dcc00317 	ldw	r19,12(sp)
    3118:	dc800217 	ldw	r18,8(sp)
    311c:	dc400117 	ldw	r17,4(sp)
    3120:	dc000017 	ldw	r16,0(sp)
    3124:	dec00604 	addi	sp,sp,24
    3128:	f800283a 	ret

0000312c <_Z4JTAGPKc>:
#define TASK1_PRIORITY      1
#define TASK2_PRIORITY      2
#define TASK3_PRIORITY      3

void JTAG(const char* str)
{
    312c:	defffc04 	addi	sp,sp,-16
    3130:	df000315 	stw	fp,12(sp)
    3134:	df000304 	addi	fp,sp,12
    3138:	e13fff15 	stw	r4,-4(fp)
	volatile int * JTAG_UART_ptr 	= (int *) 0x10001000;
    313c:	00840034 	movhi	r2,4096
    3140:	10840004 	addi	r2,r2,4096
    3144:	e0bffd15 	stw	r2,-12(fp)
	int control = *(JTAG_UART_ptr + 1);
    3148:	e0bffd17 	ldw	r2,-12(fp)
    314c:	10800104 	addi	r2,r2,4
    3150:	10800017 	ldw	r2,0(r2)
    3154:	e0bffe15 	stw	r2,-8(fp)
	while(*(str)){
    3158:	e0bfff17 	ldw	r2,-4(fp)
    315c:	10800003 	ldbu	r2,0(r2)
    3160:	10803fcc 	andi	r2,r2,255
    3164:	1080201c 	xori	r2,r2,128
    3168:	10bfe004 	addi	r2,r2,-128
    316c:	10000d26 	beq	r2,zero,31a4 <_Z4JTAGPKc+0x78>
		if (control & 0xFFFF0000)
    3170:	e0bffe17 	ldw	r2,-8(fp)
    3174:	10bfffec 	andhi	r2,r2,65535
    3178:	103ff726 	beq	r2,zero,3158 <__alt_mem_VGA_Subsystem_Char_Buf_Subsystem_Onchip_SRAM+0xf7003158>
			*(JTAG_UART_ptr) = *(str++);
    317c:	e0bfff17 	ldw	r2,-4(fp)
    3180:	10c00044 	addi	r3,r2,1
    3184:	e0ffff15 	stw	r3,-4(fp)
    3188:	10800003 	ldbu	r2,0(r2)
    318c:	10c03fcc 	andi	r3,r2,255
    3190:	18c0201c 	xori	r3,r3,128
    3194:	18ffe004 	addi	r3,r3,-128
    3198:	e0bffd17 	ldw	r2,-12(fp)
    319c:	10c00015 	stw	r3,0(r2)

void JTAG(const char* str)
{
	volatile int * JTAG_UART_ptr 	= (int *) 0x10001000;
	int control = *(JTAG_UART_ptr + 1);
	while(*(str)){
    31a0:	003fed06 	br	3158 <__alt_mem_VGA_Subsystem_Char_Buf_Subsystem_Onchip_SRAM+0xf7003158>
		if (control & 0xFFFF0000)
			*(JTAG_UART_ptr) = *(str++);
	}
}
    31a4:	0001883a 	nop
    31a8:	e037883a 	mov	sp,fp
    31ac:	df000017 	ldw	fp,0(sp)
    31b0:	dec00104 	addi	sp,sp,4
    31b4:	f800283a 	ret

000031b8 <main>:

void GameLoop(void* pdata);
void gfxLoop(void* pdata);
void inputLoop(void* pdata);

int main(void){
    31b8:	defd3c04 	addi	sp,sp,-2832
    31bc:	dfc2c315 	stw	ra,2828(sp)
    31c0:	df02c215 	stw	fp,2824(sp)
    31c4:	df02c204 	addi	fp,sp,2824
	JTAG("Starting App\r\n");
    31c8:	010000b4 	movhi	r4,2
    31cc:	213f1c04 	addi	r4,r4,-912
    31d0:	000312c0 	call	312c <_Z4JTAGPKc>

	VGA vga((short*)0x08000000, 320, 240, 1);
    31d4:	00800044 	movi	r2,1
    31d8:	d8800015 	stw	r2,0(sp)
    31dc:	01c03c04 	movi	r7,240
    31e0:	01805004 	movi	r6,320
    31e4:	01420034 	movhi	r5,2048
    31e8:	e13d3f04 	addi	r4,fp,-2820
    31ec:	000269c0 	call	269c <_ZN3VGAC1EPsiii>
	Keyboard kb;
    31f0:	e0bd4604 	addi	r2,fp,-2792
    31f4:	1009883a 	mov	r4,r2
    31f8:	0001f200 	call	1f20 <_ZN8KeyboardC1Ev>
	Game game(&kb, &vga);
    31fc:	e0fd4604 	addi	r3,fp,-2792
    3200:	e0bd4a04 	addi	r2,fp,-2776
    3204:	e1bd3f04 	addi	r6,fp,-2820
    3208:	180b883a 	mov	r5,r3
    320c:	1009883a 	mov	r4,r2
    3210:	00005700 	call	570 <_ZN4GameC1EP19ControllerInterfaceP14VideoInterface>

	OSTaskCreate(gfxLoop,  (void*) &game, &task1_stk[TASK_STACKSIZE-1],  TASK1_PRIORITY);
    3214:	e0bd4a04 	addi	r2,fp,-2776
    3218:	01c00044 	movi	r7,1
    321c:	018000b4 	movhi	r6,2
    3220:	31992704 	addi	r6,r6,25756
    3224:	100b883a 	mov	r5,r2
    3228:	01000034 	movhi	r4,0
    322c:	210ca404 	addi	r4,r4,12944
    3230:	0019b8c0 	call	19b8c <OSTaskCreate>
	OSTaskCreate(inputLoop,(void*) &kb, &task2_stk[TASK_STACKSIZE-1],  TASK2_PRIORITY);
    3234:	e0bd4604 	addi	r2,fp,-2792
    3238:	01c00084 	movi	r7,2
    323c:	018000f4 	movhi	r6,3
    3240:	31a12704 	addi	r6,r6,-31588
    3244:	100b883a 	mov	r5,r2
    3248:	01000034 	movhi	r4,0
    324c:	210cb604 	addi	r4,r4,13016
    3250:	0019b8c0 	call	19b8c <OSTaskCreate>
	OSTaskCreate(GameLoop, (void*) &game, &task3_stk[TASK_STACKSIZE-1],  TASK3_PRIORITY);
    3254:	e0bd4a04 	addi	r2,fp,-2776
    3258:	01c000c4 	movi	r7,3
    325c:	018000f4 	movhi	r6,3
    3260:	31a92704 	addi	r6,r6,-23396
    3264:	100b883a 	mov	r5,r2
    3268:	01000034 	movhi	r4,0
    326c:	210ccb04 	addi	r4,r4,13100
    3270:	0019b8c0 	call	19b8c <OSTaskCreate>

	OSStart();
    3274:	00146900 	call	14690 <OSStart>
	return 0;
    3278:	0005883a 	mov	r2,zero
}
    327c:	e037883a 	mov	sp,fp
    3280:	dfc00117 	ldw	ra,4(sp)
    3284:	df000017 	ldw	fp,0(sp)
    3288:	dec00204 	addi	sp,sp,8
    328c:	f800283a 	ret

00003290 <_Z7gfxLoopPv>:

void gfxLoop(void* pdata){
    3290:	defffc04 	addi	sp,sp,-16
    3294:	dfc00315 	stw	ra,12(sp)
    3298:	df000215 	stw	fp,8(sp)
    329c:	df000204 	addi	fp,sp,8
    32a0:	e13fff15 	stw	r4,-4(fp)
	JTAG("GFX Started\r\n");
    32a4:	010000b4 	movhi	r4,2
    32a8:	213f2004 	addi	r4,r4,-896
    32ac:	000312c0 	call	312c <_Z4JTAGPKc>

	Game* game = (Game*) pdata;
    32b0:	e0bfff17 	ldw	r2,-4(fp)
    32b4:	e0bffe15 	stw	r2,-8(fp)
	while(1){
		game->draw();
    32b8:	e13ffe17 	ldw	r4,-8(fp)
    32bc:	0000d980 	call	d98 <_ZN4Game4drawEv>
		OSTimeDlyHMSM(0, 0, 0, 100);
    32c0:	01c01904 	movi	r7,100
    32c4:	000d883a 	mov	r6,zero
    32c8:	000b883a 	mov	r5,zero
    32cc:	0009883a 	mov	r4,zero
    32d0:	001af0c0 	call	1af0c <OSTimeDlyHMSM>

void gfxLoop(void* pdata){
	JTAG("GFX Started\r\n");

	Game* game = (Game*) pdata;
	while(1){
    32d4:	003ff806 	br	32b8 <__alt_mem_VGA_Subsystem_Char_Buf_Subsystem_Onchip_SRAM+0xf70032b8>

000032d8 <_Z9inputLoopPv>:
		game->draw();
		OSTimeDlyHMSM(0, 0, 0, 100);
	}
}

void inputLoop(void* pdata){
    32d8:	defffc04 	addi	sp,sp,-16
    32dc:	dfc00315 	stw	ra,12(sp)
    32e0:	df000215 	stw	fp,8(sp)
    32e4:	df000204 	addi	fp,sp,8
    32e8:	e13fff15 	stw	r4,-4(fp)
	JTAG("Input polling started \r\n");
    32ec:	010000b4 	movhi	r4,2
    32f0:	213f2404 	addi	r4,r4,-880
    32f4:	000312c0 	call	312c <_Z4JTAGPKc>

	Keyboard* kb = (Keyboard*) pdata;
    32f8:	e0bfff17 	ldw	r2,-4(fp)
    32fc:	e0bffe15 	stw	r2,-8(fp)


	while(1)
	{
		kb->update();
    3300:	e0bffe17 	ldw	r2,-8(fp)
    3304:	10800017 	ldw	r2,0(r2)
    3308:	10800017 	ldw	r2,0(r2)
    330c:	e13ffe17 	ldw	r4,-8(fp)
    3310:	103ee83a 	callr	r2
		OSTimeDlyHMSM(0, 0, 0, 100);
    3314:	01c01904 	movi	r7,100
    3318:	000d883a 	mov	r6,zero
    331c:	000b883a 	mov	r5,zero
    3320:	0009883a 	mov	r4,zero
    3324:	001af0c0 	call	1af0c <OSTimeDlyHMSM>
	JTAG("Input polling started \r\n");

	Keyboard* kb = (Keyboard*) pdata;


	while(1)
    3328:	003ff506 	br	3300 <__alt_mem_VGA_Subsystem_Char_Buf_Subsystem_Onchip_SRAM+0xf7003300>

0000332c <_Z8GameLoopPv>:
		kb->update();
		OSTimeDlyHMSM(0, 0, 0, 100);
	}
}

void GameLoop(void* pdata){
    332c:	defffc04 	addi	sp,sp,-16
    3330:	dfc00315 	stw	ra,12(sp)
    3334:	df000215 	stw	fp,8(sp)
    3338:	df000204 	addi	fp,sp,8
    333c:	e13fff15 	stw	r4,-4(fp)
	Game* game = (Game*) pdata;
    3340:	e0bfff17 	ldw	r2,-4(fp)
    3344:	e0bffe15 	stw	r2,-8(fp)

	while (1)
	{
		game->update(100);
    3348:	01401904 	movi	r5,100
    334c:	e13ffe17 	ldw	r4,-8(fp)
    3350:	00006440 	call	644 <_ZN4Game6updateEi>
		OSTimeDlyHMSM(0, 0, 0, 100);
    3354:	01c01904 	movi	r7,100
    3358:	000d883a 	mov	r6,zero
    335c:	000b883a 	mov	r5,zero
    3360:	0009883a 	mov	r4,zero
    3364:	001af0c0 	call	1af0c <OSTimeDlyHMSM>
}

void GameLoop(void* pdata){
	Game* game = (Game*) pdata;

	while (1)
    3368:	003ff706 	br	3348 <__alt_mem_VGA_Subsystem_Char_Buf_Subsystem_Onchip_SRAM+0xf7003348>

0000336c <_ZN10__cxxabiv120__si_class_type_infoD1Ev>:
    336c:	008000b4 	movhi	r2,2
    3370:	10bf3a04 	addi	r2,r2,-792
    3374:	20800015 	stw	r2,0(r4)
    3378:	00036c01 	jmpi	36c0 <_ZN10__cxxabiv117__class_type_infoD1Ev>

0000337c <_ZN10__cxxabiv120__si_class_type_infoD0Ev>:
    337c:	defffe04 	addi	sp,sp,-8
    3380:	008000b4 	movhi	r2,2
    3384:	dc000015 	stw	r16,0(sp)
    3388:	dfc00115 	stw	ra,4(sp)
    338c:	10bf3a04 	addi	r2,r2,-792
    3390:	20800015 	stw	r2,0(r4)
    3394:	2021883a 	mov	r16,r4
    3398:	00036c00 	call	36c0 <_ZN10__cxxabiv117__class_type_infoD1Ev>
    339c:	8009883a 	mov	r4,r16
    33a0:	dfc00117 	ldw	ra,4(sp)
    33a4:	dc000017 	ldw	r16,0(sp)
    33a8:	dec00204 	addi	sp,sp,8
    33ac:	00039941 	jmpi	3994 <_ZdlPv>

000033b0 <_ZNK10__cxxabiv120__si_class_type_info12__do_dyncastEiNS_17__class_type_info10__sub_kindEPKS1_PKvS4_S6_RNS1_16__dyncast_resultE>:
    33b0:	defff504 	addi	sp,sp,-44
    33b4:	dc000115 	stw	r16,4(sp)
    33b8:	38800117 	ldw	r2,4(r7)
    33bc:	24000117 	ldw	r16,4(r4)
    33c0:	df000915 	stw	fp,36(sp)
    33c4:	ddc00815 	stw	r23,32(sp)
    33c8:	dd800715 	stw	r22,28(sp)
    33cc:	dcc00415 	stw	r19,16(sp)
    33d0:	dc800315 	stw	r18,12(sp)
    33d4:	dc400215 	stw	r17,8(sp)
    33d8:	dfc00a15 	stw	ra,40(sp)
    33dc:	dd400615 	stw	r21,24(sp)
    33e0:	dd000515 	stw	r20,20(sp)
    33e4:	2823883a 	mov	r17,r5
    33e8:	3039883a 	mov	fp,r6
    33ec:	dcc00b17 	ldw	r19,44(sp)
    33f0:	ddc00c17 	ldw	r23,48(sp)
    33f4:	dd800d17 	ldw	r22,52(sp)
    33f8:	dc800e17 	ldw	r18,56(sp)
    33fc:	80800b26 	beq	r16,r2,342c <_ZNK10__cxxabiv120__si_class_type_info12__do_dyncastEiNS_17__class_type_info10__sub_kindEPKS1_PKvS4_S6_RNS1_16__dyncast_resultE+0x7c>
    3400:	80c00007 	ldb	r3,0(r16)
    3404:	2029883a 	mov	r20,r4
    3408:	01000a84 	movi	r4,42
    340c:	382b883a 	mov	r21,r7
    3410:	19001a26 	beq	r3,r4,347c <_ZNK10__cxxabiv120__si_class_type_info12__do_dyncastEiNS_17__class_type_info10__sub_kindEPKS1_PKvS4_S6_RNS1_16__dyncast_resultE+0xcc>
    3414:	100b883a 	mov	r5,r2
    3418:	8009883a 	mov	r4,r16
    341c:	d8c00015 	stw	r3,0(sp)
    3420:	0007a6c0 	call	7a6c <strcmp>
    3424:	d8c00017 	ldw	r3,0(sp)
    3428:	1000141e 	bne	r2,zero,347c <_ZNK10__cxxabiv120__si_class_type_info12__do_dyncastEiNS_17__class_type_info10__sub_kindEPKS1_PKvS4_S6_RNS1_16__dyncast_resultE+0xcc>
    342c:	94c00015 	stw	r19,0(r18)
    3430:	97000115 	stw	fp,4(r18)
    3434:	88002816 	blt	r17,zero,34d8 <_ZNK10__cxxabiv120__si_class_type_info12__do_dyncastEiNS_17__class_type_info10__sub_kindEPKS1_PKvS4_S6_RNS1_16__dyncast_resultE+0x128>
    3438:	9c63883a 	add	r17,r19,r17
    343c:	b4403226 	beq	r22,r17,3508 <_ZNK10__cxxabiv120__si_class_type_info12__do_dyncastEiNS_17__class_type_info10__sub_kindEPKS1_PKvS4_S6_RNS1_16__dyncast_resultE+0x158>
    3440:	00800044 	movi	r2,1
    3444:	90800315 	stw	r2,12(r18)
    3448:	0005883a 	mov	r2,zero
    344c:	dfc00a17 	ldw	ra,40(sp)
    3450:	df000917 	ldw	fp,36(sp)
    3454:	ddc00817 	ldw	r23,32(sp)
    3458:	dd800717 	ldw	r22,28(sp)
    345c:	dd400617 	ldw	r21,24(sp)
    3460:	dd000517 	ldw	r20,20(sp)
    3464:	dcc00417 	ldw	r19,16(sp)
    3468:	dc800317 	ldw	r18,12(sp)
    346c:	dc400217 	ldw	r17,8(sp)
    3470:	dc000117 	ldw	r16,4(sp)
    3474:	dec00b04 	addi	sp,sp,44
    3478:	f800283a 	ret
    347c:	9d801926 	beq	r19,r22,34e4 <_ZNK10__cxxabiv120__si_class_type_info12__do_dyncastEiNS_17__class_type_info10__sub_kindEPKS1_PKvS4_S6_RNS1_16__dyncast_resultE+0x134>
    3480:	a1000217 	ldw	r4,8(r20)
    3484:	a80f883a 	mov	r7,r21
    3488:	e00d883a 	mov	r6,fp
    348c:	20800017 	ldw	r2,0(r4)
    3490:	dc800e15 	stw	r18,56(sp)
    3494:	dd800d15 	stw	r22,52(sp)
    3498:	ddc00c15 	stw	r23,48(sp)
    349c:	dcc00b15 	stw	r19,44(sp)
    34a0:	10800717 	ldw	r2,28(r2)
    34a4:	880b883a 	mov	r5,r17
    34a8:	dfc00a17 	ldw	ra,40(sp)
    34ac:	df000917 	ldw	fp,36(sp)
    34b0:	ddc00817 	ldw	r23,32(sp)
    34b4:	dd800717 	ldw	r22,28(sp)
    34b8:	dd400617 	ldw	r21,24(sp)
    34bc:	dd000517 	ldw	r20,20(sp)
    34c0:	dcc00417 	ldw	r19,16(sp)
    34c4:	dc800317 	ldw	r18,12(sp)
    34c8:	dc400217 	ldw	r17,8(sp)
    34cc:	dc000117 	ldw	r16,4(sp)
    34d0:	dec00b04 	addi	sp,sp,44
    34d4:	1000683a 	jmp	r2
    34d8:	00bfff84 	movi	r2,-2
    34dc:	88bfda1e 	bne	r17,r2,3448 <__alt_mem_VGA_Subsystem_Char_Buf_Subsystem_Onchip_SRAM+0xf7003448>
    34e0:	003fd706 	br	3440 <__alt_mem_VGA_Subsystem_Char_Buf_Subsystem_Onchip_SRAM+0xf7003440>
    34e4:	b9400117 	ldw	r5,4(r23)
    34e8:	81400526 	beq	r16,r5,3500 <_ZNK10__cxxabiv120__si_class_type_info12__do_dyncastEiNS_17__class_type_info10__sub_kindEPKS1_PKvS4_S6_RNS1_16__dyncast_resultE+0x150>
    34ec:	00800a84 	movi	r2,42
    34f0:	18bfe326 	beq	r3,r2,3480 <__alt_mem_VGA_Subsystem_Char_Buf_Subsystem_Onchip_SRAM+0xf7003480>
    34f4:	8009883a 	mov	r4,r16
    34f8:	0007a6c0 	call	7a6c <strcmp>
    34fc:	103fe01e 	bne	r2,zero,3480 <__alt_mem_VGA_Subsystem_Char_Buf_Subsystem_Onchip_SRAM+0xf7003480>
    3500:	97000215 	stw	fp,8(r18)
    3504:	003fd006 	br	3448 <__alt_mem_VGA_Subsystem_Char_Buf_Subsystem_Onchip_SRAM+0xf7003448>
    3508:	00800184 	movi	r2,6
    350c:	003fcd06 	br	3444 <__alt_mem_VGA_Subsystem_Char_Buf_Subsystem_Onchip_SRAM+0xf7003444>

00003510 <_ZNK10__cxxabiv120__si_class_type_info20__do_find_public_srcEiPKvPKNS_17__class_type_infoES2_>:
    3510:	defffa04 	addi	sp,sp,-24
    3514:	dc000215 	stw	r16,8(sp)
    3518:	dc000617 	ldw	r16,24(sp)
    351c:	dc800415 	stw	r18,16(sp)
    3520:	dc400315 	stw	r17,12(sp)
    3524:	dfc00515 	stw	ra,20(sp)
    3528:	2023883a 	mov	r17,r4
    352c:	2825883a 	mov	r18,r5
    3530:	81800b26 	beq	r16,r6,3560 <_ZNK10__cxxabiv120__si_class_type_info20__do_find_public_srcEiPKvPKNS_17__class_type_infoES2_+0x50>
    3534:	89000217 	ldw	r4,8(r17)
    3538:	900b883a 	mov	r5,r18
    353c:	20800017 	ldw	r2,0(r4)
    3540:	dc000615 	stw	r16,24(sp)
    3544:	10800817 	ldw	r2,32(r2)
    3548:	dfc00517 	ldw	ra,20(sp)
    354c:	dc800417 	ldw	r18,16(sp)
    3550:	dc400317 	ldw	r17,12(sp)
    3554:	dc000217 	ldw	r16,8(sp)
    3558:	dec00604 	addi	sp,sp,24
    355c:	1000683a 	jmp	r2
    3560:	21000117 	ldw	r4,4(r4)
    3564:	39400117 	ldw	r5,4(r7)
    3568:	21400926 	beq	r4,r5,3590 <_ZNK10__cxxabiv120__si_class_type_info20__do_find_public_srcEiPKvPKNS_17__class_type_infoES2_+0x80>
    356c:	20c00007 	ldb	r3,0(r4)
    3570:	00800a84 	movi	r2,42
    3574:	18bfef26 	beq	r3,r2,3534 <__alt_mem_VGA_Subsystem_Char_Buf_Subsystem_Onchip_SRAM+0xf7003534>
    3578:	d9800015 	stw	r6,0(sp)
    357c:	d9c00115 	stw	r7,4(sp)
    3580:	0007a6c0 	call	7a6c <strcmp>
    3584:	d9800017 	ldw	r6,0(sp)
    3588:	d9c00117 	ldw	r7,4(sp)
    358c:	103fe91e 	bne	r2,zero,3534 <__alt_mem_VGA_Subsystem_Char_Buf_Subsystem_Onchip_SRAM+0xf7003534>
    3590:	00800184 	movi	r2,6
    3594:	dfc00517 	ldw	ra,20(sp)
    3598:	dc800417 	ldw	r18,16(sp)
    359c:	dc400317 	ldw	r17,12(sp)
    35a0:	dc000217 	ldw	r16,8(sp)
    35a4:	dec00604 	addi	sp,sp,24
    35a8:	f800283a 	ret

000035ac <_ZNK10__cxxabiv120__si_class_type_info11__do_upcastEPKNS_17__class_type_infoEPKvRNS1_15__upcast_resultE>:
    35ac:	defffb04 	addi	sp,sp,-20
    35b0:	dcc00315 	stw	r19,12(sp)
    35b4:	dc800215 	stw	r18,8(sp)
    35b8:	dc400115 	stw	r17,4(sp)
    35bc:	dc000015 	stw	r16,0(sp)
    35c0:	dfc00415 	stw	ra,16(sp)
    35c4:	2027883a 	mov	r19,r4
    35c8:	2821883a 	mov	r16,r5
    35cc:	3023883a 	mov	r17,r6
    35d0:	3825883a 	mov	r18,r7
    35d4:	00037040 	call	3704 <_ZNK10__cxxabiv117__class_type_info11__do_upcastEPKS0_PKvRNS0_15__upcast_resultE>
    35d8:	10c03fcc 	andi	r3,r2,255
    35dc:	18000726 	beq	r3,zero,35fc <_ZNK10__cxxabiv120__si_class_type_info11__do_upcastEPKNS_17__class_type_infoEPKvRNS1_15__upcast_resultE+0x50>
    35e0:	dfc00417 	ldw	ra,16(sp)
    35e4:	dcc00317 	ldw	r19,12(sp)
    35e8:	dc800217 	ldw	r18,8(sp)
    35ec:	dc400117 	ldw	r17,4(sp)
    35f0:	dc000017 	ldw	r16,0(sp)
    35f4:	dec00504 	addi	sp,sp,20
    35f8:	f800283a 	ret
    35fc:	99000217 	ldw	r4,8(r19)
    3600:	900f883a 	mov	r7,r18
    3604:	880d883a 	mov	r6,r17
    3608:	20800017 	ldw	r2,0(r4)
    360c:	800b883a 	mov	r5,r16
    3610:	10800617 	ldw	r2,24(r2)
    3614:	dfc00417 	ldw	ra,16(sp)
    3618:	dcc00317 	ldw	r19,12(sp)
    361c:	dc800217 	ldw	r18,8(sp)
    3620:	dc400117 	ldw	r17,4(sp)
    3624:	dc000017 	ldw	r16,0(sp)
    3628:	dec00504 	addi	sp,sp,20
    362c:	1000683a 	jmp	r2

00003630 <_ZNK10__cxxabiv117__class_type_info11__do_upcastEPKS0_PPv>:
    3630:	20800017 	ldw	r2,0(r4)
    3634:	defffa04 	addi	sp,sp,-24
    3638:	dc000415 	stw	r16,16(sp)
    363c:	10800617 	ldw	r2,24(r2)
    3640:	3021883a 	mov	r16,r6
    3644:	31800017 	ldw	r6,0(r6)
    3648:	00c00404 	movi	r3,16
    364c:	d8c00215 	stw	r3,8(sp)
    3650:	dfc00515 	stw	ra,20(sp)
    3654:	d8000015 	stw	zero,0(sp)
    3658:	d8000115 	stw	zero,4(sp)
    365c:	d8000315 	stw	zero,12(sp)
    3660:	d80f883a 	mov	r7,sp
    3664:	103ee83a 	callr	r2
    3668:	d8800117 	ldw	r2,4(sp)
    366c:	00c00184 	movi	r3,6
    3670:	1080018c 	andi	r2,r2,6
    3674:	10c00526 	beq	r2,r3,368c <_ZNK10__cxxabiv117__class_type_info11__do_upcastEPKS0_PPv+0x5c>
    3678:	0005883a 	mov	r2,zero
    367c:	dfc00517 	ldw	ra,20(sp)
    3680:	dc000417 	ldw	r16,16(sp)
    3684:	dec00604 	addi	sp,sp,24
    3688:	f800283a 	ret
    368c:	d8c00017 	ldw	r3,0(sp)
    3690:	00800044 	movi	r2,1
    3694:	80c00015 	stw	r3,0(r16)
    3698:	dfc00517 	ldw	ra,20(sp)
    369c:	dc000417 	ldw	r16,16(sp)
    36a0:	dec00604 	addi	sp,sp,24
    36a4:	f800283a 	ret

000036a8 <_ZNK10__cxxabiv117__class_type_info20__do_find_public_srcEiPKvPKS0_S2_>:
    36a8:	d8800017 	ldw	r2,0(sp)
    36ac:	11800226 	beq	r2,r6,36b8 <_ZNK10__cxxabiv117__class_type_info20__do_find_public_srcEiPKvPKS0_S2_+0x10>
    36b0:	00800044 	movi	r2,1
    36b4:	f800283a 	ret
    36b8:	00800184 	movi	r2,6
    36bc:	f800283a 	ret

000036c0 <_ZN10__cxxabiv117__class_type_infoD1Ev>:
    36c0:	008000b4 	movhi	r2,2
    36c4:	10bf5104 	addi	r2,r2,-700
    36c8:	20800015 	stw	r2,0(r4)
    36cc:	00038f81 	jmpi	38f8 <_ZNSt9type_infoD1Ev>

000036d0 <_ZN10__cxxabiv117__class_type_infoD0Ev>:
    36d0:	defffe04 	addi	sp,sp,-8
    36d4:	008000b4 	movhi	r2,2
    36d8:	dc000015 	stw	r16,0(sp)
    36dc:	dfc00115 	stw	ra,4(sp)
    36e0:	10bf5104 	addi	r2,r2,-700
    36e4:	20800015 	stw	r2,0(r4)
    36e8:	2021883a 	mov	r16,r4
    36ec:	00038f80 	call	38f8 <_ZNSt9type_infoD1Ev>
    36f0:	8009883a 	mov	r4,r16
    36f4:	dfc00117 	ldw	ra,4(sp)
    36f8:	dc000017 	ldw	r16,0(sp)
    36fc:	dec00204 	addi	sp,sp,8
    3700:	00039941 	jmpi	3994 <_ZdlPv>

00003704 <_ZNK10__cxxabiv117__class_type_info11__do_upcastEPKS0_PKvRNS0_15__upcast_resultE>:
    3704:	21000117 	ldw	r4,4(r4)
    3708:	29400117 	ldw	r5,4(r5)
    370c:	defffd04 	addi	sp,sp,-12
    3710:	dc400115 	stw	r17,4(sp)
    3714:	dc000015 	stw	r16,0(sp)
    3718:	dfc00215 	stw	ra,8(sp)
    371c:	3023883a 	mov	r17,r6
    3720:	3821883a 	mov	r16,r7
    3724:	21400526 	beq	r4,r5,373c <_ZNK10__cxxabiv117__class_type_info11__do_upcastEPKS0_PKvRNS0_15__upcast_resultE+0x38>
    3728:	20c00007 	ldb	r3,0(r4)
    372c:	00800a84 	movi	r2,42
    3730:	18800d26 	beq	r3,r2,3768 <_ZNK10__cxxabiv117__class_type_info11__do_upcastEPKS0_PKvRNS0_15__upcast_resultE+0x64>
    3734:	0007a6c0 	call	7a6c <strcmp>
    3738:	10000b1e 	bne	r2,zero,3768 <_ZNK10__cxxabiv117__class_type_info11__do_upcastEPKS0_PKvRNS0_15__upcast_resultE+0x64>
    373c:	00800204 	movi	r2,8
    3740:	80800315 	stw	r2,12(r16)
    3744:	00800184 	movi	r2,6
    3748:	80800115 	stw	r2,4(r16)
    374c:	84400015 	stw	r17,0(r16)
    3750:	00800044 	movi	r2,1
    3754:	dfc00217 	ldw	ra,8(sp)
    3758:	dc400117 	ldw	r17,4(sp)
    375c:	dc000017 	ldw	r16,0(sp)
    3760:	dec00304 	addi	sp,sp,12
    3764:	f800283a 	ret
    3768:	0005883a 	mov	r2,zero
    376c:	003ff906 	br	3754 <__alt_mem_VGA_Subsystem_Char_Buf_Subsystem_Onchip_SRAM+0xf7003754>

00003770 <_ZNK10__cxxabiv117__class_type_info12__do_dyncastEiNS0_10__sub_kindEPKS0_PKvS3_S5_RNS0_16__dyncast_resultE>:
    3770:	defffa04 	addi	sp,sp,-24
    3774:	dc800415 	stw	r18,16(sp)
    3778:	d8800817 	ldw	r2,32(sp)
    377c:	dc800617 	ldw	r18,24(sp)
    3780:	dc400315 	stw	r17,12(sp)
    3784:	dc000215 	stw	r16,8(sp)
    3788:	dfc00515 	stw	ra,20(sp)
    378c:	dc400917 	ldw	r17,36(sp)
    3790:	24000117 	ldw	r16,4(r4)
    3794:	90801526 	beq	r18,r2,37ec <_ZNK10__cxxabiv117__class_type_info12__do_dyncastEiNS0_10__sub_kindEPKS0_PKvS3_S5_RNS0_16__dyncast_resultE+0x7c>
    3798:	39400117 	ldw	r5,4(r7)
    379c:	2c000826 	beq	r5,r16,37c0 <_ZNK10__cxxabiv117__class_type_info12__do_dyncastEiNS0_10__sub_kindEPKS0_PKvS3_S5_RNS0_16__dyncast_resultE+0x50>
    37a0:	80c00007 	ldb	r3,0(r16)
    37a4:	00800a84 	movi	r2,42
    37a8:	18800926 	beq	r3,r2,37d0 <_ZNK10__cxxabiv117__class_type_info12__do_dyncastEiNS0_10__sub_kindEPKS0_PKvS3_S5_RNS0_16__dyncast_resultE+0x60>
    37ac:	8009883a 	mov	r4,r16
    37b0:	d9800115 	stw	r6,4(sp)
    37b4:	0007a6c0 	call	7a6c <strcmp>
    37b8:	d9800117 	ldw	r6,4(sp)
    37bc:	1000041e 	bne	r2,zero,37d0 <_ZNK10__cxxabiv117__class_type_info12__do_dyncastEiNS0_10__sub_kindEPKS0_PKvS3_S5_RNS0_16__dyncast_resultE+0x60>
    37c0:	00800044 	movi	r2,1
    37c4:	8c800015 	stw	r18,0(r17)
    37c8:	89800115 	stw	r6,4(r17)
    37cc:	88800315 	stw	r2,12(r17)
    37d0:	0005883a 	mov	r2,zero
    37d4:	dfc00517 	ldw	ra,20(sp)
    37d8:	dc800417 	ldw	r18,16(sp)
    37dc:	dc400317 	ldw	r17,12(sp)
    37e0:	dc000217 	ldw	r16,8(sp)
    37e4:	dec00604 	addi	sp,sp,24
    37e8:	f800283a 	ret
    37ec:	d8800717 	ldw	r2,28(sp)
    37f0:	11400117 	ldw	r5,4(r2)
    37f4:	81400a26 	beq	r16,r5,3820 <_ZNK10__cxxabiv117__class_type_info12__do_dyncastEiNS0_10__sub_kindEPKS0_PKvS3_S5_RNS0_16__dyncast_resultE+0xb0>
    37f8:	80c00007 	ldb	r3,0(r16)
    37fc:	00800a84 	movi	r2,42
    3800:	18800c26 	beq	r3,r2,3834 <_ZNK10__cxxabiv117__class_type_info12__do_dyncastEiNS0_10__sub_kindEPKS0_PKvS3_S5_RNS0_16__dyncast_resultE+0xc4>
    3804:	8009883a 	mov	r4,r16
    3808:	d9800115 	stw	r6,4(sp)
    380c:	d9c00015 	stw	r7,0(sp)
    3810:	0007a6c0 	call	7a6c <strcmp>
    3814:	d9800117 	ldw	r6,4(sp)
    3818:	d9c00017 	ldw	r7,0(sp)
    381c:	1000021e 	bne	r2,zero,3828 <_ZNK10__cxxabiv117__class_type_info12__do_dyncastEiNS0_10__sub_kindEPKS0_PKvS3_S5_RNS0_16__dyncast_resultE+0xb8>
    3820:	89800215 	stw	r6,8(r17)
    3824:	003fea06 	br	37d0 <__alt_mem_VGA_Subsystem_Char_Buf_Subsystem_Onchip_SRAM+0xf70037d0>
    3828:	39400117 	ldw	r5,4(r7)
    382c:	817fdf1e 	bne	r16,r5,37ac <__alt_mem_VGA_Subsystem_Char_Buf_Subsystem_Onchip_SRAM+0xf70037ac>
    3830:	003fe306 	br	37c0 <__alt_mem_VGA_Subsystem_Char_Buf_Subsystem_Onchip_SRAM+0xf70037c0>
    3834:	38800117 	ldw	r2,4(r7)
    3838:	80bfe51e 	bne	r16,r2,37d0 <__alt_mem_VGA_Subsystem_Char_Buf_Subsystem_Onchip_SRAM+0xf70037d0>
    383c:	003fe006 	br	37c0 <__alt_mem_VGA_Subsystem_Char_Buf_Subsystem_Onchip_SRAM+0xf70037c0>

00003840 <_ZNK10__cxxabiv117__class_type_info10__do_catchEPKSt9type_infoPPvj>:
    3840:	20800117 	ldw	r2,4(r4)
    3844:	28c00117 	ldw	r3,4(r5)
    3848:	10c02926 	beq	r2,r3,38f0 <_ZNK10__cxxabiv117__class_type_info10__do_catchEPKSt9type_infoPPvj+0xb0>
    384c:	defffb04 	addi	sp,sp,-20
    3850:	dcc00315 	stw	r19,12(sp)
    3854:	dc800215 	stw	r18,8(sp)
    3858:	dc400115 	stw	r17,4(sp)
    385c:	dc000015 	stw	r16,0(sp)
    3860:	dfc00415 	stw	ra,16(sp)
    3864:	2821883a 	mov	r16,r5
    3868:	11400007 	ldb	r5,0(r2)
    386c:	2025883a 	mov	r18,r4
    3870:	01000a84 	movi	r4,42
    3874:	3823883a 	mov	r17,r7
    3878:	3027883a 	mov	r19,r6
    387c:	29000626 	beq	r5,r4,3898 <_ZNK10__cxxabiv117__class_type_info10__do_catchEPKSt9type_infoPPvj+0x58>
    3880:	180b883a 	mov	r5,r3
    3884:	1009883a 	mov	r4,r2
    3888:	0007a6c0 	call	7a6c <strcmp>
    388c:	1000021e 	bne	r2,zero,3898 <_ZNK10__cxxabiv117__class_type_info10__do_catchEPKSt9type_infoPPvj+0x58>
    3890:	00800044 	movi	r2,1
    3894:	00000306 	br	38a4 <_ZNK10__cxxabiv117__class_type_info10__do_catchEPKSt9type_infoPPvj+0x64>
    3898:	008000c4 	movi	r2,3
    389c:	1440082e 	bgeu	r2,r17,38c0 <_ZNK10__cxxabiv117__class_type_info10__do_catchEPKSt9type_infoPPvj+0x80>
    38a0:	0005883a 	mov	r2,zero
    38a4:	dfc00417 	ldw	ra,16(sp)
    38a8:	dcc00317 	ldw	r19,12(sp)
    38ac:	dc800217 	ldw	r18,8(sp)
    38b0:	dc400117 	ldw	r17,4(sp)
    38b4:	dc000017 	ldw	r16,0(sp)
    38b8:	dec00504 	addi	sp,sp,20
    38bc:	f800283a 	ret
    38c0:	80800017 	ldw	r2,0(r16)
    38c4:	980d883a 	mov	r6,r19
    38c8:	900b883a 	mov	r5,r18
    38cc:	10800517 	ldw	r2,20(r2)
    38d0:	8009883a 	mov	r4,r16
    38d4:	dfc00417 	ldw	ra,16(sp)
    38d8:	dcc00317 	ldw	r19,12(sp)
    38dc:	dc800217 	ldw	r18,8(sp)
    38e0:	dc400117 	ldw	r17,4(sp)
    38e4:	dc000017 	ldw	r16,0(sp)
    38e8:	dec00504 	addi	sp,sp,20
    38ec:	1000683a 	jmp	r2
    38f0:	00800044 	movi	r2,1
    38f4:	f800283a 	ret

000038f8 <_ZNSt9type_infoD1Ev>:
    38f8:	f800283a 	ret

000038fc <_ZNKSt9type_info14__is_pointer_pEv>:
    38fc:	0005883a 	mov	r2,zero
    3900:	f800283a 	ret

00003904 <_ZNKSt9type_info11__do_upcastEPKN10__cxxabiv117__class_type_infoEPPv>:
    3904:	0005883a 	mov	r2,zero
    3908:	f800283a 	ret

0000390c <_ZNSt9type_infoD0Ev>:
    390c:	00039941 	jmpi	3994 <_ZdlPv>

00003910 <_ZNKSt9type_info10__do_catchEPKS_PPvj>:
    3910:	21000117 	ldw	r4,4(r4)
    3914:	29400117 	ldw	r5,4(r5)
    3918:	21400c26 	beq	r4,r5,394c <_ZNKSt9type_info10__do_catchEPKS_PPvj+0x3c>
    391c:	20c00007 	ldb	r3,0(r4)
    3920:	00800a84 	movi	r2,42
    3924:	18800726 	beq	r3,r2,3944 <_ZNKSt9type_info10__do_catchEPKS_PPvj+0x34>
    3928:	deffff04 	addi	sp,sp,-4
    392c:	dfc00015 	stw	ra,0(sp)
    3930:	0007a6c0 	call	7a6c <strcmp>
    3934:	1005003a 	cmpeq	r2,r2,zero
    3938:	dfc00017 	ldw	ra,0(sp)
    393c:	dec00104 	addi	sp,sp,4
    3940:	f800283a 	ret
    3944:	0005883a 	mov	r2,zero
    3948:	f800283a 	ret
    394c:	00800044 	movi	r2,1
    3950:	f800283a 	ret

00003954 <__cxa_pure_virtual>:
    3954:	014000b4 	movhi	r5,2
    3958:	deffff04 	addi	sp,sp,-4
    395c:	297f6604 	addi	r5,r5,-616
    3960:	018006c4 	movi	r6,27
    3964:	01000084 	movi	r4,2
    3968:	dfc00015 	stw	ra,0(sp)
    396c:	00137140 	call	13714 <write>
    3970:	0003a580 	call	3a58 <_ZSt9terminatev>

00003974 <__cxa_deleted_virtual>:
    3974:	014000b4 	movhi	r5,2
    3978:	deffff04 	addi	sp,sp,-4
    397c:	297f6d04 	addi	r5,r5,-588
    3980:	01800784 	movi	r6,30
    3984:	01000084 	movi	r4,2
    3988:	dfc00015 	stw	ra,0(sp)
    398c:	00137140 	call	13714 <write>
    3990:	0003a580 	call	3a58 <_ZSt9terminatev>

00003994 <_ZdlPv>:
    3994:	0006b441 	jmpi	6b44 <free>

00003998 <_ZN10__cxxabiv111__terminateEPFvvE>:
    3998:	00800034 	movhi	r2,0
    399c:	deffef04 	addi	sp,sp,-68
    39a0:	1090a504 	addi	r2,r2,17044
    39a4:	d8800615 	stw	r2,24(sp)
    39a8:	008000b4 	movhi	r2,2
    39ac:	10bc2904 	addi	r2,r2,-3932
    39b0:	d8800715 	stw	r2,28(sp)
    39b4:	00800034 	movhi	r2,0
    39b8:	108e7c04 	addi	r2,r2,14832
    39bc:	d9000d15 	stw	r4,52(sp)
    39c0:	d809883a 	mov	r4,sp
    39c4:	d8800915 	stw	r2,36(sp)
    39c8:	dfc01015 	stw	ra,64(sp)
    39cc:	df000f15 	stw	fp,60(sp)
    39d0:	dec00815 	stw	sp,32(sp)
    39d4:	dec00a15 	stw	sp,40(sp)
    39d8:	000679c0 	call	679c <_Unwind_SjLj_Register>
    39dc:	00800044 	movi	r2,1
    39e0:	d8800115 	stw	r2,4(sp)
    39e4:	d8800d17 	ldw	r2,52(sp)
    39e8:	103ee83a 	callr	r2
    39ec:	0006b180 	call	6b18 <abort>
    39f0:	d8c00217 	ldw	r3,8(sp)
    39f4:	d8800117 	ldw	r2,4(sp)
    39f8:	d8c00d15 	stw	r3,52(sp)
    39fc:	d8c00317 	ldw	r3,12(sp)
    3a00:	d8c00e15 	stw	r3,56(sp)
    3a04:	10000b26 	beq	r2,zero,3a34 <_ZN10__cxxabiv111__terminateEPFvvE+0x9c>
    3a08:	10bfffc4 	addi	r2,r2,-1
    3a0c:	10000126 	beq	r2,zero,3a14 <_ZN10__cxxabiv111__terminateEPFvvE+0x7c>
    3a10:	003b68fa 	trap	3
    3a14:	d8000115 	stw	zero,4(sp)
    3a18:	0004b800 	call	4b80 <__cxa_end_catch>
    3a1c:	d8c00e17 	ldw	r3,56(sp)
    3a20:	00bfffc4 	movi	r2,-1
    3a24:	18800826 	beq	r3,r2,3a48 <_ZN10__cxxabiv111__terminateEPFvvE+0xb0>
    3a28:	d9000d17 	ldw	r4,52(sp)
    3a2c:	d8800115 	stw	r2,4(sp)
    3a30:	00069980 	call	6998 <_Unwind_SjLj_Resume>
    3a34:	d9000d17 	ldw	r4,52(sp)
    3a38:	0004acc0 	call	4acc <__cxa_begin_catch>
    3a3c:	00800084 	movi	r2,2
    3a40:	d8800115 	stw	r2,4(sp)
    3a44:	0006b180 	call	6b18 <abort>
    3a48:	d8800e17 	ldw	r2,56(sp)
    3a4c:	d9000d17 	ldw	r4,52(sp)
    3a50:	d8800115 	stw	r2,4(sp)
    3a54:	00048940 	call	4894 <__cxa_call_unexpected>

00003a58 <_ZSt9terminatev>:
    3a58:	008000b4 	movhi	r2,2
    3a5c:	1088d704 	addi	r2,r2,9052
    3a60:	11000017 	ldw	r4,0(r2)
    3a64:	deffff04 	addi	sp,sp,-4
    3a68:	dfc00015 	stw	ra,0(sp)
    3a6c:	00039980 	call	3998 <_ZN10__cxxabiv111__terminateEPFvvE>

00003a70 <_ZN10__cxxabiv112__unexpectedEPFvvE>:
    3a70:	deffff04 	addi	sp,sp,-4
    3a74:	dfc00015 	stw	ra,0(sp)
    3a78:	203ee83a 	callr	r4
    3a7c:	0003a580 	call	3a58 <_ZSt9terminatev>

00003a80 <_ZSt10unexpectedv>:
    3a80:	008000b4 	movhi	r2,2
    3a84:	1088d804 	addi	r2,r2,9056
    3a88:	11000017 	ldw	r4,0(r2)
    3a8c:	deffff04 	addi	sp,sp,-4
    3a90:	dfc00015 	stw	ra,0(sp)
    3a94:	0003a700 	call	3a70 <_ZN10__cxxabiv112__unexpectedEPFvvE>

00003a98 <_ZSt13set_terminatePFvvE>:
    3a98:	00c000b4 	movhi	r3,2
    3a9c:	18c8d704 	addi	r3,r3,9052
    3aa0:	18800017 	ldw	r2,0(r3)
    3aa4:	19000015 	stw	r4,0(r3)
    3aa8:	f800283a 	ret

00003aac <_ZSt13get_terminatev>:
    3aac:	008000b4 	movhi	r2,2
    3ab0:	1088d704 	addi	r2,r2,9052
    3ab4:	10800017 	ldw	r2,0(r2)
    3ab8:	f800283a 	ret

00003abc <_ZSt14set_unexpectedPFvvE>:
    3abc:	00c000b4 	movhi	r3,2
    3ac0:	18c8d804 	addi	r3,r3,9056
    3ac4:	18800017 	ldw	r2,0(r3)
    3ac8:	19000015 	stw	r4,0(r3)
    3acc:	f800283a 	ret

00003ad0 <_ZSt14get_unexpectedv>:
    3ad0:	008000b4 	movhi	r2,2
    3ad4:	1088d804 	addi	r2,r2,9056
    3ad8:	10800017 	ldw	r2,0(r2)
    3adc:	f800283a 	ret

00003ae0 <_ZL21size_of_encoded_valueh>:
    3ae0:	deffff04 	addi	sp,sp,-4
    3ae4:	dfc00015 	stw	ra,0(sp)
    3ae8:	20c03fcc 	andi	r3,r4,255
    3aec:	00803fc4 	movi	r2,255
    3af0:	18802026 	beq	r3,r2,3b74 <_ZL21size_of_encoded_valueh+0x94>
    3af4:	210001cc 	andi	r4,r4,7
    3af8:	00800144 	movi	r2,5
    3afc:	11001c36 	bltu	r2,r4,3b70 <_ZL21size_of_encoded_valueh+0x90>
    3b00:	200890ba 	slli	r4,r4,2
    3b04:	00800034 	movhi	r2,0
    3b08:	108ec604 	addi	r2,r2,15128
    3b0c:	2089883a 	add	r4,r4,r2
    3b10:	20800017 	ldw	r2,0(r4)
    3b14:	1000683a 	jmp	r2
    3b18:	00003b30 	cmpltui	zero,zero,236
    3b1c:	00003b70 	cmpltui	zero,zero,237
    3b20:	00003b40 	call	3b4 <_ZN6Entity6updateEi+0x50>
    3b24:	00003b30 	cmpltui	zero,zero,236
    3b28:	00003b60 	cmpeqi	zero,zero,237
    3b2c:	00003b50 	cmplti	zero,zero,237
    3b30:	00800104 	movi	r2,4
    3b34:	dfc00017 	ldw	ra,0(sp)
    3b38:	dec00104 	addi	sp,sp,4
    3b3c:	f800283a 	ret
    3b40:	00800084 	movi	r2,2
    3b44:	dfc00017 	ldw	ra,0(sp)
    3b48:	dec00104 	addi	sp,sp,4
    3b4c:	f800283a 	ret
    3b50:	00800044 	movi	r2,1
    3b54:	dfc00017 	ldw	ra,0(sp)
    3b58:	dec00104 	addi	sp,sp,4
    3b5c:	f800283a 	ret
    3b60:	00800204 	movi	r2,8
    3b64:	dfc00017 	ldw	ra,0(sp)
    3b68:	dec00104 	addi	sp,sp,4
    3b6c:	f800283a 	ret
    3b70:	0006b180 	call	6b18 <abort>
    3b74:	0005883a 	mov	r2,zero
    3b78:	dfc00017 	ldw	ra,0(sp)
    3b7c:	dec00104 	addi	sp,sp,4
    3b80:	f800283a 	ret

00003b84 <_ZL28read_encoded_value_with_basehjPKhPj>:
    3b84:	deffff04 	addi	sp,sp,-4
    3b88:	dfc00015 	stw	ra,0(sp)
    3b8c:	20c03fcc 	andi	r3,r4,255
    3b90:	00801404 	movi	r2,80
    3b94:	18807326 	beq	r3,r2,3d64 <_ZL28read_encoded_value_with_basehjPKhPj+0x1e0>
    3b98:	20c003cc 	andi	r3,r4,15
    3b9c:	00800304 	movi	r2,12
    3ba0:	10c06f36 	bltu	r2,r3,3d60 <_ZL28read_encoded_value_with_basehjPKhPj+0x1dc>
    3ba4:	180690ba 	slli	r3,r3,2
    3ba8:	02000034 	movhi	r8,0
    3bac:	420eef04 	addi	r8,r8,15292
    3bb0:	1a07883a 	add	r3,r3,r8
    3bb4:	18800017 	ldw	r2,0(r3)
    3bb8:	1000683a 	jmp	r2
    3bbc:	00003bf0 	cmpltui	zero,zero,239
    3bc0:	00003d0c 	andi	zero,zero,244
    3bc4:	00003d48 	cmpgei	zero,zero,245
    3bc8:	00003bf0 	cmpltui	zero,zero,239
    3bcc:	00003c54 	movui	zero,241
    3bd0:	00003ca8 	cmpgeui	zero,zero,242
    3bd4:	00003d60 	cmpeqi	zero,zero,245
    3bd8:	00003d60 	cmpeqi	zero,zero,245
    3bdc:	00003d60 	cmpeqi	zero,zero,245
    3be0:	00003cb4 	movhi	zero,242
    3be4:	00003c84 	movi	zero,242
    3be8:	00003bf0 	cmpltui	zero,zero,239
    3bec:	00003c54 	movui	zero,241
    3bf0:	30800043 	ldbu	r2,1(r6)
    3bf4:	30c00083 	ldbu	r3,2(r6)
    3bf8:	324000c3 	ldbu	r9,3(r6)
    3bfc:	32000003 	ldbu	r8,0(r6)
    3c00:	1004923a 	slli	r2,r2,8
    3c04:	1806943a 	slli	r3,r3,16
    3c08:	4812963a 	slli	r9,r9,24
    3c0c:	1204b03a 	or	r2,r2,r8
    3c10:	1884b03a 	or	r2,r3,r2
    3c14:	4886b03a 	or	r3,r9,r2
    3c18:	30800104 	addi	r2,r6,4
    3c1c:	18000926 	beq	r3,zero,3c44 <_ZL28read_encoded_value_with_basehjPKhPj+0xc0>
    3c20:	22001c0c 	andi	r8,r4,112
    3c24:	02400404 	movi	r9,16
    3c28:	42405726 	beq	r8,r9,3d88 <_ZL28read_encoded_value_with_basehjPKhPj+0x204>
    3c2c:	21003fcc 	andi	r4,r4,255
    3c30:	2100201c 	xori	r4,r4,128
    3c34:	213fe004 	addi	r4,r4,-128
    3c38:	1947883a 	add	r3,r3,r5
    3c3c:	2000010e 	bge	r4,zero,3c44 <_ZL28read_encoded_value_with_basehjPKhPj+0xc0>
    3c40:	18c00017 	ldw	r3,0(r3)
    3c44:	38c00015 	stw	r3,0(r7)
    3c48:	dfc00017 	ldw	ra,0(sp)
    3c4c:	dec00104 	addi	sp,sp,4
    3c50:	f800283a 	ret
    3c54:	30800043 	ldbu	r2,1(r6)
    3c58:	30c00083 	ldbu	r3,2(r6)
    3c5c:	324000c3 	ldbu	r9,3(r6)
    3c60:	32000003 	ldbu	r8,0(r6)
    3c64:	1004923a 	slli	r2,r2,8
    3c68:	1806943a 	slli	r3,r3,16
    3c6c:	4812963a 	slli	r9,r9,24
    3c70:	1204b03a 	or	r2,r2,r8
    3c74:	1884b03a 	or	r2,r3,r2
    3c78:	4886b03a 	or	r3,r9,r2
    3c7c:	30800204 	addi	r2,r6,8
    3c80:	003fe606 	br	3c1c <__alt_mem_VGA_Subsystem_Char_Buf_Subsystem_Onchip_SRAM+0xf7003c1c>
    3c84:	30c00043 	ldbu	r3,1(r6)
    3c88:	32000003 	ldbu	r8,0(r6)
    3c8c:	30800084 	addi	r2,r6,2
    3c90:	1806923a 	slli	r3,r3,8
    3c94:	1a06b03a 	or	r3,r3,r8
    3c98:	18ffffcc 	andi	r3,r3,65535
    3c9c:	18e0001c 	xori	r3,r3,32768
    3ca0:	18e00004 	addi	r3,r3,-32768
    3ca4:	003fdd06 	br	3c1c <__alt_mem_VGA_Subsystem_Char_Buf_Subsystem_Onchip_SRAM+0xf7003c1c>
    3ca8:	30c00003 	ldbu	r3,0(r6)
    3cac:	30800044 	addi	r2,r6,1
    3cb0:	003fda06 	br	3c1c <__alt_mem_VGA_Subsystem_Char_Buf_Subsystem_Onchip_SRAM+0xf7003c1c>
    3cb4:	3017883a 	mov	r11,r6
    3cb8:	0007883a 	mov	r3,zero
    3cbc:	0013883a 	mov	r9,zero
    3cc0:	5a800003 	ldbu	r10,0(r11)
    3cc4:	58800044 	addi	r2,r11,1
    3cc8:	1017883a 	mov	r11,r2
    3ccc:	52001fcc 	andi	r8,r10,127
    3cd0:	4250983a 	sll	r8,r8,r9
    3cd4:	53003fcc 	andi	r12,r10,255
    3cd8:	6300201c 	xori	r12,r12,128
    3cdc:	633fe004 	addi	r12,r12,-128
    3ce0:	1a06b03a 	or	r3,r3,r8
    3ce4:	4a4001c4 	addi	r9,r9,7
    3ce8:	603ff516 	blt	r12,zero,3cc0 <__alt_mem_VGA_Subsystem_Char_Buf_Subsystem_Onchip_SRAM+0xf7003cc0>
    3cec:	020007c4 	movi	r8,31
    3cf0:	427fca36 	bltu	r8,r9,3c1c <__alt_mem_VGA_Subsystem_Char_Buf_Subsystem_Onchip_SRAM+0xf7003c1c>
    3cf4:	5280100c 	andi	r10,r10,64
    3cf8:	503fc826 	beq	r10,zero,3c1c <__alt_mem_VGA_Subsystem_Char_Buf_Subsystem_Onchip_SRAM+0xf7003c1c>
    3cfc:	023fffc4 	movi	r8,-1
    3d00:	4252983a 	sll	r9,r8,r9
    3d04:	1a46b03a 	or	r3,r3,r9
    3d08:	003fc506 	br	3c20 <__alt_mem_VGA_Subsystem_Char_Buf_Subsystem_Onchip_SRAM+0xf7003c20>
    3d0c:	3017883a 	mov	r11,r6
    3d10:	0007883a 	mov	r3,zero
    3d14:	0015883a 	mov	r10,zero
    3d18:	5a000003 	ldbu	r8,0(r11)
    3d1c:	58800044 	addi	r2,r11,1
    3d20:	1017883a 	mov	r11,r2
    3d24:	42401fcc 	andi	r9,r8,127
    3d28:	4a92983a 	sll	r9,r9,r10
    3d2c:	42003fcc 	andi	r8,r8,255
    3d30:	4200201c 	xori	r8,r8,128
    3d34:	423fe004 	addi	r8,r8,-128
    3d38:	1a46b03a 	or	r3,r3,r9
    3d3c:	528001c4 	addi	r10,r10,7
    3d40:	403ff516 	blt	r8,zero,3d18 <__alt_mem_VGA_Subsystem_Char_Buf_Subsystem_Onchip_SRAM+0xf7003d18>
    3d44:	003fb506 	br	3c1c <__alt_mem_VGA_Subsystem_Char_Buf_Subsystem_Onchip_SRAM+0xf7003c1c>
    3d48:	30c00043 	ldbu	r3,1(r6)
    3d4c:	32000003 	ldbu	r8,0(r6)
    3d50:	30800084 	addi	r2,r6,2
    3d54:	1806923a 	slli	r3,r3,8
    3d58:	1a06b03a 	or	r3,r3,r8
    3d5c:	003faf06 	br	3c1c <__alt_mem_VGA_Subsystem_Char_Buf_Subsystem_Onchip_SRAM+0xf7003c1c>
    3d60:	0006b180 	call	6b18 <abort>
    3d64:	308000c4 	addi	r2,r6,3
    3d68:	00ffff04 	movi	r3,-4
    3d6c:	10c4703a 	and	r2,r2,r3
    3d70:	10c00017 	ldw	r3,0(r2)
    3d74:	10800104 	addi	r2,r2,4
    3d78:	38c00015 	stw	r3,0(r7)
    3d7c:	dfc00017 	ldw	ra,0(sp)
    3d80:	dec00104 	addi	sp,sp,4
    3d84:	f800283a 	ret
    3d88:	300b883a 	mov	r5,r6
    3d8c:	003fa706 	br	3c2c <__alt_mem_VGA_Subsystem_Char_Buf_Subsystem_Onchip_SRAM+0xf7003c2c>

00003d90 <_ZL15get_ttype_entryP16lsda_header_infom>:
    3d90:	defffc04 	addi	sp,sp,-16
    3d94:	dfc00315 	stw	ra,12(sp)
    3d98:	dc400215 	stw	r17,8(sp)
    3d9c:	dc000115 	stw	r16,4(sp)
    3da0:	2021883a 	mov	r16,r4
    3da4:	21000503 	ldbu	r4,20(r4)
    3da8:	2823883a 	mov	r17,r5
    3dac:	0003ae00 	call	3ae0 <_ZL21size_of_encoded_valueh>
    3db0:	1445383a 	mul	r2,r2,r17
    3db4:	81800317 	ldw	r6,12(r16)
    3db8:	81400217 	ldw	r5,8(r16)
    3dbc:	81000503 	ldbu	r4,20(r16)
    3dc0:	d80f883a 	mov	r7,sp
    3dc4:	308dc83a 	sub	r6,r6,r2
    3dc8:	0003b840 	call	3b84 <_ZL28read_encoded_value_with_basehjPKhPj>
    3dcc:	d8800017 	ldw	r2,0(sp)
    3dd0:	dfc00317 	ldw	ra,12(sp)
    3dd4:	dc400217 	ldw	r17,8(sp)
    3dd8:	dc000117 	ldw	r16,4(sp)
    3ddc:	dec00404 	addi	sp,sp,16
    3de0:	f800283a 	ret

00003de4 <_ZL21base_of_encoded_valuehP15_Unwind_Context>:
    3de4:	deffff04 	addi	sp,sp,-4
    3de8:	dfc00015 	stw	ra,0(sp)
    3dec:	20c03fcc 	andi	r3,r4,255
    3df0:	00803fc4 	movi	r2,255
    3df4:	18800e26 	beq	r3,r2,3e30 <_ZL21base_of_encoded_valuehP15_Unwind_Context+0x4c>
    3df8:	20801c0c 	andi	r2,r4,112
    3dfc:	00c00804 	movi	r3,32
    3e00:	10c01726 	beq	r2,r3,3e60 <_ZL21base_of_encoded_valuehP15_Unwind_Context+0x7c>
    3e04:	18800e2e 	bgeu	r3,r2,3e40 <_ZL21base_of_encoded_valuehP15_Unwind_Context+0x5c>
    3e08:	00c01004 	movi	r3,64
    3e0c:	10c01026 	beq	r2,r3,3e50 <_ZL21base_of_encoded_valuehP15_Unwind_Context+0x6c>
    3e10:	00c01404 	movi	r3,80
    3e14:	10c00626 	beq	r2,r3,3e30 <_ZL21base_of_encoded_valuehP15_Unwind_Context+0x4c>
    3e18:	00c00c04 	movi	r3,48
    3e1c:	10c00b1e 	bne	r2,r3,3e4c <_ZL21base_of_encoded_valuehP15_Unwind_Context+0x68>
    3e20:	2809883a 	mov	r4,r5
    3e24:	dfc00017 	ldw	ra,0(sp)
    3e28:	dec00104 	addi	sp,sp,4
    3e2c:	00068741 	jmpi	6874 <_Unwind_GetDataRelBase>
    3e30:	0005883a 	mov	r2,zero
    3e34:	dfc00017 	ldw	ra,0(sp)
    3e38:	dec00104 	addi	sp,sp,4
    3e3c:	f800283a 	ret
    3e40:	103ffb26 	beq	r2,zero,3e30 <__alt_mem_VGA_Subsystem_Char_Buf_Subsystem_Onchip_SRAM+0xf7003e30>
    3e44:	00c00404 	movi	r3,16
    3e48:	10fff926 	beq	r2,r3,3e30 <__alt_mem_VGA_Subsystem_Char_Buf_Subsystem_Onchip_SRAM+0xf7003e30>
    3e4c:	0006b180 	call	6b18 <abort>
    3e50:	2809883a 	mov	r4,r5
    3e54:	dfc00017 	ldw	ra,0(sp)
    3e58:	dec00104 	addi	sp,sp,4
    3e5c:	00068641 	jmpi	6864 <_Unwind_GetRegionStart>
    3e60:	2809883a 	mov	r4,r5
    3e64:	dfc00017 	ldw	ra,0(sp)
    3e68:	dec00104 	addi	sp,sp,4
    3e6c:	000687c1 	jmpi	687c <_Unwind_GetTextRelBase>

00003e70 <_ZL17parse_lsda_headerP15_Unwind_ContextPKhP16lsda_header_info>:
    3e70:	defffb04 	addi	sp,sp,-20
    3e74:	dcc00315 	stw	r19,12(sp)
    3e78:	dc400115 	stw	r17,4(sp)
    3e7c:	dc000015 	stw	r16,0(sp)
    3e80:	dfc00415 	stw	ra,16(sp)
    3e84:	dc800215 	stw	r18,8(sp)
    3e88:	2027883a 	mov	r19,r4
    3e8c:	2821883a 	mov	r16,r5
    3e90:	3023883a 	mov	r17,r6
    3e94:	20003f26 	beq	r4,zero,3f94 <_ZL17parse_lsda_headerP15_Unwind_ContextPKhP16lsda_header_info+0x124>
    3e98:	00068640 	call	6864 <_Unwind_GetRegionStart>
    3e9c:	88800015 	stw	r2,0(r17)
    3ea0:	84800003 	ldbu	r18,0(r16)
    3ea4:	00c03fc4 	movi	r3,255
    3ea8:	84000044 	addi	r16,r16,1
    3eac:	90c03726 	beq	r18,r3,3f8c <_ZL17parse_lsda_headerP15_Unwind_ContextPKhP16lsda_header_info+0x11c>
    3eb0:	980b883a 	mov	r5,r19
    3eb4:	9009883a 	mov	r4,r18
    3eb8:	0003de40 	call	3de4 <_ZL21base_of_encoded_valuehP15_Unwind_Context>
    3ebc:	800d883a 	mov	r6,r16
    3ec0:	89c00104 	addi	r7,r17,4
    3ec4:	100b883a 	mov	r5,r2
    3ec8:	9009883a 	mov	r4,r18
    3ecc:	0003b840 	call	3b84 <_ZL28read_encoded_value_with_basehjPKhPj>
    3ed0:	1021883a 	mov	r16,r2
    3ed4:	80c00003 	ldbu	r3,0(r16)
    3ed8:	01003fc4 	movi	r4,255
    3edc:	80800044 	addi	r2,r16,1
    3ee0:	88c00505 	stb	r3,20(r17)
    3ee4:	18c03fcc 	andi	r3,r3,255
    3ee8:	19002c26 	beq	r3,r4,3f9c <_ZL17parse_lsda_headerP15_Unwind_ContextPKhP16lsda_header_info+0x12c>
    3eec:	100f883a 	mov	r7,r2
    3ef0:	000d883a 	mov	r6,zero
    3ef4:	000b883a 	mov	r5,zero
    3ef8:	38c00003 	ldbu	r3,0(r7)
    3efc:	10800044 	addi	r2,r2,1
    3f00:	100f883a 	mov	r7,r2
    3f04:	19001fcc 	andi	r4,r3,127
    3f08:	2148983a 	sll	r4,r4,r5
    3f0c:	18c03fcc 	andi	r3,r3,255
    3f10:	18c0201c 	xori	r3,r3,128
    3f14:	18ffe004 	addi	r3,r3,-128
    3f18:	310cb03a 	or	r6,r6,r4
    3f1c:	294001c4 	addi	r5,r5,7
    3f20:	183ff516 	blt	r3,zero,3ef8 <__alt_mem_VGA_Subsystem_Char_Buf_Subsystem_Onchip_SRAM+0xf7003ef8>
    3f24:	118d883a 	add	r6,r2,r6
    3f28:	89800315 	stw	r6,12(r17)
    3f2c:	10c00003 	ldbu	r3,0(r2)
    3f30:	000d883a 	mov	r6,zero
    3f34:	10800044 	addi	r2,r2,1
    3f38:	88c00545 	stb	r3,21(r17)
    3f3c:	000b883a 	mov	r5,zero
    3f40:	10c00003 	ldbu	r3,0(r2)
    3f44:	10800044 	addi	r2,r2,1
    3f48:	19001fcc 	andi	r4,r3,127
    3f4c:	2148983a 	sll	r4,r4,r5
    3f50:	18c03fcc 	andi	r3,r3,255
    3f54:	18c0201c 	xori	r3,r3,128
    3f58:	18ffe004 	addi	r3,r3,-128
    3f5c:	310cb03a 	or	r6,r6,r4
    3f60:	294001c4 	addi	r5,r5,7
    3f64:	183ff616 	blt	r3,zero,3f40 <__alt_mem_VGA_Subsystem_Char_Buf_Subsystem_Onchip_SRAM+0xf7003f40>
    3f68:	118d883a 	add	r6,r2,r6
    3f6c:	89800415 	stw	r6,16(r17)
    3f70:	dfc00417 	ldw	ra,16(sp)
    3f74:	dcc00317 	ldw	r19,12(sp)
    3f78:	dc800217 	ldw	r18,8(sp)
    3f7c:	dc400117 	ldw	r17,4(sp)
    3f80:	dc000017 	ldw	r16,0(sp)
    3f84:	dec00504 	addi	sp,sp,20
    3f88:	f800283a 	ret
    3f8c:	88800115 	stw	r2,4(r17)
    3f90:	003fd006 	br	3ed4 <__alt_mem_VGA_Subsystem_Char_Buf_Subsystem_Onchip_SRAM+0xf7003ed4>
    3f94:	0005883a 	mov	r2,zero
    3f98:	003fc006 	br	3e9c <__alt_mem_VGA_Subsystem_Char_Buf_Subsystem_Onchip_SRAM+0xf7003e9c>
    3f9c:	88000315 	stw	zero,12(r17)
    3fa0:	003fe206 	br	3f2c <__alt_mem_VGA_Subsystem_Char_Buf_Subsystem_Onchip_SRAM+0xf7003f2c>

00003fa4 <_ZL16get_adjusted_ptrPKSt9type_infoS1_PPv.constprop.3>:
    3fa4:	28800017 	ldw	r2,0(r5)
    3fa8:	30c00017 	ldw	r3,0(r6)
    3fac:	defffb04 	addi	sp,sp,-20
    3fb0:	10800217 	ldw	r2,8(r2)
    3fb4:	dc400315 	stw	r17,12(sp)
    3fb8:	dc000215 	stw	r16,8(sp)
    3fbc:	d9400115 	stw	r5,4(sp)
    3fc0:	dfc00415 	stw	ra,16(sp)
    3fc4:	2021883a 	mov	r16,r4
    3fc8:	d8c00015 	stw	r3,0(sp)
    3fcc:	2809883a 	mov	r4,r5
    3fd0:	3023883a 	mov	r17,r6
    3fd4:	103ee83a 	callr	r2
    3fd8:	10803fcc 	andi	r2,r2,255
    3fdc:	d9400117 	ldw	r5,4(sp)
    3fe0:	10000326 	beq	r2,zero,3ff0 <_ZL16get_adjusted_ptrPKSt9type_infoS1_PPv.constprop.3+0x4c>
    3fe4:	d8800017 	ldw	r2,0(sp)
    3fe8:	10800017 	ldw	r2,0(r2)
    3fec:	d8800015 	stw	r2,0(sp)
    3ff0:	80800017 	ldw	r2,0(r16)
    3ff4:	01c00044 	movi	r7,1
    3ff8:	d80d883a 	mov	r6,sp
    3ffc:	10800417 	ldw	r2,16(r2)
    4000:	8009883a 	mov	r4,r16
    4004:	103ee83a 	callr	r2
    4008:	10c03fcc 	andi	r3,r2,255
    400c:	18000226 	beq	r3,zero,4018 <_ZL16get_adjusted_ptrPKSt9type_infoS1_PPv.constprop.3+0x74>
    4010:	d8c00017 	ldw	r3,0(sp)
    4014:	88c00015 	stw	r3,0(r17)
    4018:	dfc00417 	ldw	ra,16(sp)
    401c:	dc400317 	ldw	r17,12(sp)
    4020:	dc000217 	ldw	r16,8(sp)
    4024:	dec00504 	addi	sp,sp,20
    4028:	f800283a 	ret

0000402c <_ZL28check_compact_exception_specPKSt9type_infoPvPKhij>:
    402c:	defff604 	addi	sp,sp,-40
    4030:	dc000415 	stw	r16,16(sp)
    4034:	3821d23a 	srai	r16,r7,8
    4038:	dc800615 	stw	r18,24(sp)
    403c:	dc400515 	stw	r17,20(sp)
    4040:	dfc00915 	stw	ra,36(sp)
    4044:	dd000815 	stw	r20,32(sp)
    4048:	dcc00715 	stw	r19,28(sp)
    404c:	d9400215 	stw	r5,8(sp)
    4050:	3825883a 	mov	r18,r7
    4054:	2023883a 	mov	r17,r4
    4058:	8000010e 	bge	r16,zero,4060 <_ZL28check_compact_exception_specPKSt9type_infoPvPKhij+0x34>
    405c:	0421c83a 	sub	r16,zero,r16
    4060:	000b883a 	mov	r5,zero
    4064:	01000144 	movi	r4,5
    4068:	d9800315 	stw	r6,12(sp)
    406c:	0003de40 	call	3de4 <_ZL21base_of_encoded_valuehP15_Unwind_Context>
    4070:	d9800317 	ldw	r6,12(sp)
    4074:	d9c00104 	addi	r7,sp,4
    4078:	100b883a 	mov	r5,r2
    407c:	01000144 	movi	r4,5
    4080:	0003b840 	call	3b84 <_ZL28read_encoded_value_with_basehjPKhPj>
    4084:	11fffe64 	muli	r7,r2,-7
    4088:	0007883a 	mov	r3,zero
    408c:	11400003 	ldbu	r5,0(r2)
    4090:	110001e4 	muli	r4,r2,7
    4094:	10800044 	addi	r2,r2,1
    4098:	29801fcc 	andi	r6,r5,127
    409c:	21c9883a 	add	r4,r4,r7
    40a0:	3108983a 	sll	r4,r6,r4
    40a4:	29403fcc 	andi	r5,r5,255
    40a8:	2940201c 	xori	r5,r5,128
    40ac:	297fe004 	addi	r5,r5,-128
    40b0:	1906b03a 	or	r3,r3,r4
    40b4:	283ff516 	blt	r5,zero,408c <__alt_mem_VGA_Subsystem_Char_Buf_Subsystem_Onchip_SRAM+0xf700408c>
    40b8:	10c5883a 	add	r2,r2,r3
    40bc:	11fffe64 	muli	r7,r2,-7
    40c0:	0009883a 	mov	r4,zero
    40c4:	11400003 	ldbu	r5,0(r2)
    40c8:	10c001e4 	muli	r3,r2,7
    40cc:	10800044 	addi	r2,r2,1
    40d0:	29801fcc 	andi	r6,r5,127
    40d4:	19c7883a 	add	r3,r3,r7
    40d8:	30c6983a 	sll	r3,r6,r3
    40dc:	29403fcc 	andi	r5,r5,255
    40e0:	2940201c 	xori	r5,r5,128
    40e4:	297fe004 	addi	r5,r5,-128
    40e8:	20c8b03a 	or	r4,r4,r3
    40ec:	283ff516 	blt	r5,zero,40c4 <__alt_mem_VGA_Subsystem_Char_Buf_Subsystem_Onchip_SRAM+0xf70040c4>
    40f0:	80c03fcc 	andi	r3,r16,255
    40f4:	18ffffc4 	addi	r3,r3,-1
    40f8:	10c7883a 	add	r3,r2,r3
    40fc:	210000c4 	addi	r4,r4,3
    4100:	197ffe64 	muli	r5,r3,-7
    4104:	2085883a 	add	r2,r4,r2
    4108:	04ffff04 	movi	r19,-4
    410c:	14e6703a 	and	r19,r2,r19
    4110:	0021883a 	mov	r16,zero
    4114:	18800003 	ldbu	r2,0(r3)
    4118:	190001e4 	muli	r4,r3,7
    411c:	1d000044 	addi	r20,r3,1
    4120:	10c01fcc 	andi	r3,r2,127
    4124:	2149883a 	add	r4,r4,r5
    4128:	1908983a 	sll	r4,r3,r4
    412c:	10803fcc 	andi	r2,r2,255
    4130:	1080201c 	xori	r2,r2,128
    4134:	10bfe004 	addi	r2,r2,-128
    4138:	a007883a 	mov	r3,r20
    413c:	8120b03a 	or	r16,r16,r4
    4140:	103ff416 	blt	r2,zero,4114 <__alt_mem_VGA_Subsystem_Char_Buf_Subsystem_Onchip_SRAM+0xf7004114>
    4144:	94803fcc 	andi	r18,r18,255
    4148:	80001f26 	beq	r16,zero,41c8 <_ZL28check_compact_exception_specPKSt9type_infoPvPKhij+0x19c>
    414c:	9009883a 	mov	r4,r18
    4150:	0003ae00 	call	3ae0 <_ZL21size_of_encoded_valueh>
    4154:	81bfffc4 	addi	r6,r16,-1
    4158:	308d383a 	mul	r6,r6,r2
    415c:	d9400a17 	ldw	r5,40(sp)
    4160:	d80f883a 	mov	r7,sp
    4164:	9009883a 	mov	r4,r18
    4168:	34cd883a 	add	r6,r6,r19
    416c:	0003b840 	call	3b84 <_ZL28read_encoded_value_with_basehjPKhPj>
    4170:	d9000017 	ldw	r4,0(sp)
    4174:	d9800204 	addi	r6,sp,8
    4178:	880b883a 	mov	r5,r17
    417c:	0003fa40 	call	3fa4 <_ZL16get_adjusted_ptrPKSt9type_infoS1_PPv.constprop.3>
    4180:	10c03fcc 	andi	r3,r2,255
    4184:	1800111e 	bne	r3,zero,41cc <_ZL28check_compact_exception_specPKSt9type_infoPvPKhij+0x1a0>
    4188:	a17ffe64 	muli	r5,r20,-7
    418c:	a007883a 	mov	r3,r20
    4190:	0021883a 	mov	r16,zero
    4194:	19000003 	ldbu	r4,0(r3)
    4198:	18c001e4 	muli	r3,r3,7
    419c:	a5000044 	addi	r20,r20,1
    41a0:	20801fcc 	andi	r2,r4,127
    41a4:	1947883a 	add	r3,r3,r5
    41a8:	10c4983a 	sll	r2,r2,r3
    41ac:	21003fcc 	andi	r4,r4,255
    41b0:	2100201c 	xori	r4,r4,128
    41b4:	213fe004 	addi	r4,r4,-128
    41b8:	a007883a 	mov	r3,r20
    41bc:	80a0b03a 	or	r16,r16,r2
    41c0:	203ff416 	blt	r4,zero,4194 <__alt_mem_VGA_Subsystem_Char_Buf_Subsystem_Onchip_SRAM+0xf7004194>
    41c4:	003fe006 	br	4148 <__alt_mem_VGA_Subsystem_Char_Buf_Subsystem_Onchip_SRAM+0xf7004148>
    41c8:	0005883a 	mov	r2,zero
    41cc:	dfc00917 	ldw	ra,36(sp)
    41d0:	dd000817 	ldw	r20,32(sp)
    41d4:	dcc00717 	ldw	r19,28(sp)
    41d8:	dc800617 	ldw	r18,24(sp)
    41dc:	dc400517 	ldw	r17,20(sp)
    41e0:	dc000417 	ldw	r16,16(sp)
    41e4:	dec00a04 	addi	sp,sp,40
    41e8:	f800283a 	ret

000041ec <_ZL20check_exception_specP16lsda_header_infoPKSt9type_infoPvl>:
    41ec:	defffb04 	addi	sp,sp,-20
    41f0:	dc000115 	stw	r16,4(sp)
    41f4:	24000317 	ldw	r16,12(r4)
    41f8:	01ce303a 	nor	r7,zero,r7
    41fc:	dc800315 	stw	r18,12(sp)
    4200:	dc400215 	stw	r17,8(sp)
    4204:	dfc00415 	stw	ra,16(sp)
    4208:	2023883a 	mov	r17,r4
    420c:	2825883a 	mov	r18,r5
    4210:	d9800015 	stw	r6,0(sp)
    4214:	81e1883a 	add	r16,r16,r7
    4218:	800d883a 	mov	r6,r16
    421c:	000b883a 	mov	r5,zero
    4220:	0009883a 	mov	r4,zero
    4224:	30800003 	ldbu	r2,0(r6)
    4228:	84000044 	addi	r16,r16,1
    422c:	800d883a 	mov	r6,r16
    4230:	10c01fcc 	andi	r3,r2,127
    4234:	1906983a 	sll	r3,r3,r4
    4238:	10803fcc 	andi	r2,r2,255
    423c:	1080201c 	xori	r2,r2,128
    4240:	10bfe004 	addi	r2,r2,-128
    4244:	28cab03a 	or	r5,r5,r3
    4248:	210001c4 	addi	r4,r4,7
    424c:	103ff516 	blt	r2,zero,4224 <__alt_mem_VGA_Subsystem_Char_Buf_Subsystem_Onchip_SRAM+0xf7004224>
    4250:	28000e26 	beq	r5,zero,428c <_ZL20check_exception_specP16lsda_header_infoPKSt9type_infoPvl+0xa0>
    4254:	8809883a 	mov	r4,r17
    4258:	0003d900 	call	3d90 <_ZL15get_ttype_entryP16lsda_header_infom>
    425c:	d80d883a 	mov	r6,sp
    4260:	900b883a 	mov	r5,r18
    4264:	1009883a 	mov	r4,r2
    4268:	0003fa40 	call	3fa4 <_ZL16get_adjusted_ptrPKSt9type_infoS1_PPv.constprop.3>
    426c:	10c03fcc 	andi	r3,r2,255
    4270:	183fe926 	beq	r3,zero,4218 <__alt_mem_VGA_Subsystem_Char_Buf_Subsystem_Onchip_SRAM+0xf7004218>
    4274:	dfc00417 	ldw	ra,16(sp)
    4278:	dc800317 	ldw	r18,12(sp)
    427c:	dc400217 	ldw	r17,8(sp)
    4280:	dc000117 	ldw	r16,4(sp)
    4284:	dec00504 	addi	sp,sp,20
    4288:	f800283a 	ret
    428c:	0005883a 	mov	r2,zero
    4290:	003ff806 	br	4274 <__alt_mem_VGA_Subsystem_Char_Buf_Subsystem_Onchip_SRAM+0xf7004274>

00004294 <__gxx_personality_sj0>:
    4294:	00800034 	movhi	r2,0
    4298:	deffdd04 	addi	sp,sp,-140
    429c:	1090a504 	addi	r2,r2,17044
    42a0:	d8800e15 	stw	r2,56(sp)
    42a4:	008000b4 	movhi	r2,2
    42a8:	10bc2f04 	addi	r2,r2,-3908
    42ac:	d8800f15 	stw	r2,60(sp)
    42b0:	00800034 	movhi	r2,0
    42b4:	10921b04 	addi	r2,r2,18540
    42b8:	d9001515 	stw	r4,84(sp)
    42bc:	d9000804 	addi	r4,sp,32
    42c0:	d8801115 	stw	r2,68(sp)
    42c4:	dfc02215 	stw	ra,136(sp)
    42c8:	df002115 	stw	fp,132(sp)
    42cc:	dec01015 	stw	sp,64(sp)
    42d0:	dec01215 	stw	sp,72(sp)
    42d4:	d9401915 	stw	r5,100(sp)
    42d8:	d9801615 	stw	r6,88(sp)
    42dc:	d9c01715 	stw	r7,92(sp)
    42e0:	000679c0 	call	679c <_Unwind_SjLj_Register>
    42e4:	d8c01517 	ldw	r3,84(sp)
    42e8:	d8000715 	stw	zero,28(sp)
    42ec:	d8000615 	stw	zero,24(sp)
    42f0:	00800044 	movi	r2,1
    42f4:	18800926 	beq	r3,r2,431c <__gxx_personality_sj0+0x88>
    42f8:	01c000c4 	movi	r7,3
    42fc:	d9c01515 	stw	r7,84(sp)
    4300:	d9000804 	addi	r4,sp,32
    4304:	00067b40 	call	67b4 <_Unwind_SjLj_Unregister>
    4308:	d8801517 	ldw	r2,84(sp)
    430c:	dfc02217 	ldw	ra,136(sp)
    4310:	df002117 	ldw	fp,132(sp)
    4314:	dec02304 	addi	sp,sp,140
    4318:	f800283a 	ret
    431c:	d9001617 	ldw	r4,88(sp)
    4320:	00af3574 	movhi	r2,48341
    4324:	d9c01717 	ldw	r7,92(sp)
    4328:	10b54004 	addi	r2,r2,-11008
    432c:	00ee2cb4 	movhi	r3,47282
    4330:	2085883a 	add	r2,r4,r2
    4334:	18eaaf04 	addi	r3,r3,-21828
    4338:	d8801b15 	stw	r2,108(sp)
    433c:	38c7883a 	add	r3,r7,r3
    4340:	1105803a 	cmpltu	r2,r2,r4
    4344:	10c7883a 	add	r3,r2,r3
    4348:	d8c01c15 	stw	r3,112(sp)
    434c:	d8c01917 	ldw	r3,100(sp)
    4350:	00800184 	movi	r2,6
    4354:	18805426 	beq	r3,r2,44a8 <__gxx_personality_sj0+0x214>
    4358:	d9002417 	ldw	r4,144(sp)
    435c:	00bfffc4 	movi	r2,-1
    4360:	d8800915 	stw	r2,36(sp)
    4364:	00068580 	call	6858 <_Unwind_GetLanguageSpecificData>
    4368:	d8801a15 	stw	r2,104(sp)
    436c:	1000c926 	beq	r2,zero,4694 <__gxx_personality_sj0+0x400>
    4370:	d9002417 	ldw	r4,144(sp)
    4374:	d80d883a 	mov	r6,sp
    4378:	100b883a 	mov	r5,r2
    437c:	0003e700 	call	3e70 <_ZL17parse_lsda_headerP15_Unwind_ContextPKhP16lsda_header_info>
    4380:	d9402417 	ldw	r5,144(sp)
    4384:	d9000503 	ldbu	r4,20(sp)
    4388:	d8801515 	stw	r2,84(sp)
    438c:	0003de40 	call	3de4 <_ZL21base_of_encoded_valuehP15_Unwind_Context>
    4390:	d9002417 	ldw	r4,144(sp)
    4394:	d9400604 	addi	r5,sp,24
    4398:	d8800215 	stw	r2,8(sp)
    439c:	00068280 	call	6828 <_Unwind_GetIPInfo>
    43a0:	d8c00617 	ldw	r3,24(sp)
    43a4:	18006126 	beq	r3,zero,452c <__gxx_personality_sj0+0x298>
    43a8:	1000ba16 	blt	r2,zero,4694 <__gxx_personality_sj0+0x400>
    43ac:	10002f1e 	bne	r2,zero,446c <__gxx_personality_sj0+0x1d8>
    43b0:	d8001515 	stw	zero,84(sp)
    43b4:	d8001f15 	stw	zero,124(sp)
    43b8:	d8001815 	stw	zero,96(sp)
    43bc:	00c00044 	movi	r3,1
    43c0:	d9001917 	ldw	r4,100(sp)
    43c4:	2080004c 	andi	r2,r4,1
    43c8:	1000b51e 	bne	r2,zero,46a0 <__gxx_personality_sj0+0x40c>
    43cc:	d9001917 	ldw	r4,100(sp)
    43d0:	2080020c 	andi	r2,r4,8
    43d4:	1000b71e 	bne	r2,zero,46b4 <__gxx_personality_sj0+0x420>
    43d8:	d9c01c17 	ldw	r7,112(sp)
    43dc:	3800b826 	beq	r7,zero,46c0 <__gxx_personality_sj0+0x42c>
    43e0:	00800044 	movi	r2,1
    43e4:	1880b526 	beq	r3,r2,46bc <__gxx_personality_sj0+0x428>
    43e8:	d9c01517 	ldw	r7,84(sp)
    43ec:	3800f516 	blt	r7,zero,47c4 <__gxx_personality_sj0+0x530>
    43f0:	d9002417 	ldw	r4,144(sp)
    43f4:	d9802317 	ldw	r6,140(sp)
    43f8:	00bfffc4 	movi	r2,-1
    43fc:	000b883a 	mov	r5,zero
    4400:	d8800915 	stw	r2,36(sp)
    4404:	00067fc0 	call	67fc <_Unwind_SetGR>
    4408:	d9801517 	ldw	r6,84(sp)
    440c:	d9002417 	ldw	r4,144(sp)
    4410:	01400044 	movi	r5,1
    4414:	00067fc0 	call	67fc <_Unwind_SetGR>
    4418:	d9002417 	ldw	r4,144(sp)
    441c:	d9401f17 	ldw	r5,124(sp)
    4420:	00068480 	call	6848 <_Unwind_SetIP>
    4424:	010001c4 	movi	r4,7
    4428:	d9001515 	stw	r4,84(sp)
    442c:	003fb406 	br	4300 <__alt_mem_VGA_Subsystem_Char_Buf_Subsystem_Onchip_SRAM+0xf7004300>
    4430:	000f883a 	mov	r7,zero
    4434:	000d883a 	mov	r6,zero
    4438:	19000003 	ldbu	r4,0(r3)
    443c:	18c00044 	addi	r3,r3,1
    4440:	d8c01515 	stw	r3,84(sp)
    4444:	21401fcc 	andi	r5,r4,127
    4448:	298a983a 	sll	r5,r5,r6
    444c:	21003fcc 	andi	r4,r4,255
    4450:	2100201c 	xori	r4,r4,128
    4454:	213fe004 	addi	r4,r4,-128
    4458:	394eb03a 	or	r7,r7,r5
    445c:	318001c4 	addi	r6,r6,7
    4460:	203ff516 	blt	r4,zero,4438 <__alt_mem_VGA_Subsystem_Char_Buf_Subsystem_Onchip_SRAM+0xf7004438>
    4464:	10bfffc4 	addi	r2,r2,-1
    4468:	10003226 	beq	r2,zero,4534 <__gxx_personality_sj0+0x2a0>
    446c:	d9c01517 	ldw	r7,84(sp)
    4470:	0011883a 	mov	r8,zero
    4474:	000d883a 	mov	r6,zero
    4478:	39000003 	ldbu	r4,0(r7)
    447c:	38c00044 	addi	r3,r7,1
    4480:	180f883a 	mov	r7,r3
    4484:	21401fcc 	andi	r5,r4,127
    4488:	298a983a 	sll	r5,r5,r6
    448c:	21003fcc 	andi	r4,r4,255
    4490:	2100201c 	xori	r4,r4,128
    4494:	213fe004 	addi	r4,r4,-128
    4498:	4150b03a 	or	r8,r8,r5
    449c:	318001c4 	addi	r6,r6,7
    44a0:	203ff516 	blt	r4,zero,4478 <__alt_mem_VGA_Subsystem_Char_Buf_Subsystem_Onchip_SRAM+0xf7004478>
